
gamecontroller.elf:     file format elf32-avr

Sections:
Idx Name          Size      VMA       LMA       File off  Algn
  0 .text         00000e1c  00000000  00000000  00000094  2**1
                  CONTENTS, ALLOC, LOAD, READONLY, CODE
  1 .data         00000032  00802000  00000e1c  00000eb0  2**0
                  CONTENTS, ALLOC, LOAD, DATA
  2 .bss          00000008  00802032  00802032  00000ee2  2**0
                  ALLOC
  3 .comment      0000005c  00000000  00000000  00000ee2  2**0
                  CONTENTS, READONLY
  4 .debug_aranges 000001a0  00000000  00000000  00000f3e  2**0
                  CONTENTS, READONLY, DEBUGGING
  5 .debug_info   00001543  00000000  00000000  000010de  2**0
                  CONTENTS, READONLY, DEBUGGING
  6 .debug_abbrev 0000079a  00000000  00000000  00002621  2**0
                  CONTENTS, READONLY, DEBUGGING
  7 .debug_line   0000166f  00000000  00000000  00002dbb  2**0
                  CONTENTS, READONLY, DEBUGGING
  8 .debug_frame  000003d8  00000000  00000000  0000442c  2**2
                  CONTENTS, READONLY, DEBUGGING
  9 .debug_str    00011576  00000000  00000000  00004804  2**0
                  CONTENTS, READONLY, DEBUGGING
 10 .debug_loc    0000063d  00000000  00000000  00015d7a  2**0
                  CONTENTS, READONLY, DEBUGGING
 11 .debug_ranges 00000140  00000000  00000000  000163b7  2**0
                  CONTENTS, READONLY, DEBUGGING
 12 .debug_macro  000057c0  00000000  00000000  000164f7  2**0
                  CONTENTS, READONLY, DEBUGGING

Disassembly of section .text:

00000000 <__vectors>:
   0:	0c 94 b6 00 	jmp	0x16c	; 0x16c <__ctors_end>
   4:	0c 94 d3 00 	jmp	0x1a6	; 0x1a6 <__bad_interrupt>
   8:	0c 94 d3 00 	jmp	0x1a6	; 0x1a6 <__bad_interrupt>
   c:	0c 94 d3 00 	jmp	0x1a6	; 0x1a6 <__bad_interrupt>
  10:	0c 94 d3 00 	jmp	0x1a6	; 0x1a6 <__bad_interrupt>
  14:	0c 94 d3 00 	jmp	0x1a6	; 0x1a6 <__bad_interrupt>
  18:	0c 94 d3 00 	jmp	0x1a6	; 0x1a6 <__bad_interrupt>
  1c:	0c 94 d3 00 	jmp	0x1a6	; 0x1a6 <__bad_interrupt>
  20:	0c 94 d3 00 	jmp	0x1a6	; 0x1a6 <__bad_interrupt>
  24:	0c 94 d3 00 	jmp	0x1a6	; 0x1a6 <__bad_interrupt>
  28:	0c 94 d3 00 	jmp	0x1a6	; 0x1a6 <__bad_interrupt>
  2c:	0c 94 d3 00 	jmp	0x1a6	; 0x1a6 <__bad_interrupt>
  30:	0c 94 d3 00 	jmp	0x1a6	; 0x1a6 <__bad_interrupt>
  34:	0c 94 d3 00 	jmp	0x1a6	; 0x1a6 <__bad_interrupt>
  38:	0c 94 d3 00 	jmp	0x1a6	; 0x1a6 <__bad_interrupt>
  3c:	0c 94 d3 00 	jmp	0x1a6	; 0x1a6 <__bad_interrupt>
  40:	0c 94 d3 00 	jmp	0x1a6	; 0x1a6 <__bad_interrupt>
  44:	0c 94 d3 00 	jmp	0x1a6	; 0x1a6 <__bad_interrupt>
  48:	0c 94 d3 00 	jmp	0x1a6	; 0x1a6 <__bad_interrupt>
  4c:	0c 94 d3 00 	jmp	0x1a6	; 0x1a6 <__bad_interrupt>
  50:	0c 94 d3 00 	jmp	0x1a6	; 0x1a6 <__bad_interrupt>
  54:	0c 94 d3 00 	jmp	0x1a6	; 0x1a6 <__bad_interrupt>
  58:	0c 94 d3 00 	jmp	0x1a6	; 0x1a6 <__bad_interrupt>
  5c:	0c 94 d3 00 	jmp	0x1a6	; 0x1a6 <__bad_interrupt>
  60:	0c 94 d3 00 	jmp	0x1a6	; 0x1a6 <__bad_interrupt>
  64:	0c 94 d3 00 	jmp	0x1a6	; 0x1a6 <__bad_interrupt>
  68:	0c 94 d3 00 	jmp	0x1a6	; 0x1a6 <__bad_interrupt>
  6c:	0c 94 d3 00 	jmp	0x1a6	; 0x1a6 <__bad_interrupt>
  70:	0c 94 d3 00 	jmp	0x1a6	; 0x1a6 <__bad_interrupt>
  74:	0c 94 d3 00 	jmp	0x1a6	; 0x1a6 <__bad_interrupt>
  78:	0c 94 d3 00 	jmp	0x1a6	; 0x1a6 <__bad_interrupt>
  7c:	0c 94 d3 00 	jmp	0x1a6	; 0x1a6 <__bad_interrupt>
  80:	0c 94 d3 00 	jmp	0x1a6	; 0x1a6 <__bad_interrupt>
  84:	0c 94 d3 00 	jmp	0x1a6	; 0x1a6 <__bad_interrupt>
  88:	0c 94 d3 00 	jmp	0x1a6	; 0x1a6 <__bad_interrupt>
  8c:	0c 94 d3 00 	jmp	0x1a6	; 0x1a6 <__bad_interrupt>
  90:	0c 94 d3 00 	jmp	0x1a6	; 0x1a6 <__bad_interrupt>
  94:	0c 94 d3 00 	jmp	0x1a6	; 0x1a6 <__bad_interrupt>
  98:	0c 94 d3 00 	jmp	0x1a6	; 0x1a6 <__bad_interrupt>
  9c:	0c 94 d3 00 	jmp	0x1a6	; 0x1a6 <__bad_interrupt>
  a0:	0c 94 d3 00 	jmp	0x1a6	; 0x1a6 <__bad_interrupt>
  a4:	0c 94 d3 00 	jmp	0x1a6	; 0x1a6 <__bad_interrupt>
  a8:	0c 94 d3 00 	jmp	0x1a6	; 0x1a6 <__bad_interrupt>
  ac:	0c 94 d3 00 	jmp	0x1a6	; 0x1a6 <__bad_interrupt>
  b0:	0c 94 d3 00 	jmp	0x1a6	; 0x1a6 <__bad_interrupt>
  b4:	0c 94 d3 00 	jmp	0x1a6	; 0x1a6 <__bad_interrupt>
  b8:	0c 94 d3 00 	jmp	0x1a6	; 0x1a6 <__bad_interrupt>
  bc:	0c 94 d3 00 	jmp	0x1a6	; 0x1a6 <__bad_interrupt>
  c0:	0c 94 d3 00 	jmp	0x1a6	; 0x1a6 <__bad_interrupt>
  c4:	0c 94 d3 00 	jmp	0x1a6	; 0x1a6 <__bad_interrupt>
  c8:	0c 94 d3 00 	jmp	0x1a6	; 0x1a6 <__bad_interrupt>
  cc:	0c 94 d3 00 	jmp	0x1a6	; 0x1a6 <__bad_interrupt>
  d0:	0c 94 d3 00 	jmp	0x1a6	; 0x1a6 <__bad_interrupt>
  d4:	0c 94 d3 00 	jmp	0x1a6	; 0x1a6 <__bad_interrupt>
  d8:	0c 94 d3 00 	jmp	0x1a6	; 0x1a6 <__bad_interrupt>
  dc:	0c 94 d3 00 	jmp	0x1a6	; 0x1a6 <__bad_interrupt>
  e0:	0c 94 d3 00 	jmp	0x1a6	; 0x1a6 <__bad_interrupt>
  e4:	0c 94 d3 00 	jmp	0x1a6	; 0x1a6 <__bad_interrupt>
  e8:	0c 94 d3 00 	jmp	0x1a6	; 0x1a6 <__bad_interrupt>
  ec:	0c 94 d3 00 	jmp	0x1a6	; 0x1a6 <__bad_interrupt>
  f0:	0c 94 d3 00 	jmp	0x1a6	; 0x1a6 <__bad_interrupt>
  f4:	0c 94 d3 00 	jmp	0x1a6	; 0x1a6 <__bad_interrupt>
  f8:	0c 94 d3 00 	jmp	0x1a6	; 0x1a6 <__bad_interrupt>
  fc:	0c 94 d3 00 	jmp	0x1a6	; 0x1a6 <__bad_interrupt>
 100:	0c 94 d3 00 	jmp	0x1a6	; 0x1a6 <__bad_interrupt>
 104:	0c 94 d3 00 	jmp	0x1a6	; 0x1a6 <__bad_interrupt>
 108:	0c 94 d3 00 	jmp	0x1a6	; 0x1a6 <__bad_interrupt>
 10c:	0c 94 d3 00 	jmp	0x1a6	; 0x1a6 <__bad_interrupt>
 110:	0c 94 d3 00 	jmp	0x1a6	; 0x1a6 <__bad_interrupt>
 114:	0c 94 d3 00 	jmp	0x1a6	; 0x1a6 <__bad_interrupt>
 118:	0c 94 d3 00 	jmp	0x1a6	; 0x1a6 <__bad_interrupt>
 11c:	0c 94 d3 00 	jmp	0x1a6	; 0x1a6 <__bad_interrupt>
 120:	0c 94 d3 00 	jmp	0x1a6	; 0x1a6 <__bad_interrupt>
 124:	0c 94 d3 00 	jmp	0x1a6	; 0x1a6 <__bad_interrupt>
 128:	0c 94 d3 00 	jmp	0x1a6	; 0x1a6 <__bad_interrupt>
 12c:	0c 94 d3 00 	jmp	0x1a6	; 0x1a6 <__bad_interrupt>
 130:	0c 94 d3 00 	jmp	0x1a6	; 0x1a6 <__bad_interrupt>
 134:	0c 94 d3 00 	jmp	0x1a6	; 0x1a6 <__bad_interrupt>
 138:	0c 94 d3 00 	jmp	0x1a6	; 0x1a6 <__bad_interrupt>
 13c:	0c 94 d3 00 	jmp	0x1a6	; 0x1a6 <__bad_interrupt>
 140:	0c 94 d3 00 	jmp	0x1a6	; 0x1a6 <__bad_interrupt>
 144:	0c 94 d3 00 	jmp	0x1a6	; 0x1a6 <__bad_interrupt>
 148:	0c 94 d3 00 	jmp	0x1a6	; 0x1a6 <__bad_interrupt>
 14c:	0c 94 d3 00 	jmp	0x1a6	; 0x1a6 <__bad_interrupt>
 150:	0c 94 d3 00 	jmp	0x1a6	; 0x1a6 <__bad_interrupt>
 154:	0c 94 d3 00 	jmp	0x1a6	; 0x1a6 <__bad_interrupt>
 158:	0c 94 d3 00 	jmp	0x1a6	; 0x1a6 <__bad_interrupt>
 15c:	0c 94 d3 00 	jmp	0x1a6	; 0x1a6 <__bad_interrupt>
 160:	0c 94 d3 00 	jmp	0x1a6	; 0x1a6 <__bad_interrupt>
 164:	0c 94 d3 00 	jmp	0x1a6	; 0x1a6 <__bad_interrupt>
 168:	0c 94 d3 00 	jmp	0x1a6	; 0x1a6 <__bad_interrupt>

0000016c <__ctors_end>:
 16c:	11 24       	eor	r1, r1
 16e:	1f be       	out	0x3f, r1	; 63
 170:	cf ef       	ldi	r28, 0xFF	; 255
 172:	cd bf       	out	0x3d, r28	; 61
 174:	d7 e2       	ldi	r29, 0x27	; 39
 176:	de bf       	out	0x3e, r29	; 62

00000178 <__do_copy_data>:
 178:	10 e2       	ldi	r17, 0x20	; 32
 17a:	a0 e0       	ldi	r26, 0x00	; 0
 17c:	b0 e2       	ldi	r27, 0x20	; 32
 17e:	ec e1       	ldi	r30, 0x1C	; 28
 180:	fe e0       	ldi	r31, 0x0E	; 14
 182:	02 c0       	rjmp	.+4      	; 0x188 <__do_copy_data+0x10>
 184:	05 90       	lpm	r0, Z+
 186:	0d 92       	st	X+, r0
 188:	a2 33       	cpi	r26, 0x32	; 50
 18a:	b1 07       	cpc	r27, r17
 18c:	d9 f7       	brne	.-10     	; 0x184 <__do_copy_data+0xc>

0000018e <__do_clear_bss>:
 18e:	20 e2       	ldi	r18, 0x20	; 32
 190:	a2 e3       	ldi	r26, 0x32	; 50
 192:	b0 e2       	ldi	r27, 0x20	; 32
 194:	01 c0       	rjmp	.+2      	; 0x198 <.do_clear_bss_start>

00000196 <.do_clear_bss_loop>:
 196:	1d 92       	st	X+, r1

00000198 <.do_clear_bss_start>:
 198:	aa 33       	cpi	r26, 0x3A	; 58
 19a:	b2 07       	cpc	r27, r18
 19c:	e1 f7       	brne	.-8      	; 0x196 <.do_clear_bss_loop>
 19e:	0e 94 7e 01 	call	0x2fc	; 0x2fc <main>
 1a2:	0c 94 0c 07 	jmp	0xe18	; 0xe18 <_exit>

000001a6 <__bad_interrupt>:
 1a6:	0c 94 00 00 	jmp	0	; 0x0 <__vectors>

000001aa <AccInit>:
#include <avr/io.h>
#include "acc.h"

void AccInit(void)
{
 1aa:	cf 93       	push	r28
 1ac:	df 93       	push	r29
 1ae:	cd b7       	in	r28, 0x3d	; 61
 1b0:	de b7       	in	r29, 0x3e	; 62
		AnalogInit();
 1b2:	0e 94 13 01 	call	0x226	; 0x226 <AnalogInit>
		//uit slaapmodus halen :  By placing a high input signal on pin 7 of acc, the device will resume to normal mode of operation.
		// --> ACC-sleep : PC6
		
		//set sleep pin of accelerometer
		PORTC.OUT&=0b01000000;			//set PC6 high
 1b6:	80 e4       	ldi	r24, 0x40	; 64
 1b8:	96 e0       	ldi	r25, 0x06	; 6
 1ba:	20 e4       	ldi	r18, 0x40	; 64
 1bc:	36 e0       	ldi	r19, 0x06	; 6
 1be:	f9 01       	movw	r30, r18
 1c0:	24 81       	ldd	r18, Z+4	; 0x04
 1c2:	20 74       	andi	r18, 0x40	; 64
 1c4:	fc 01       	movw	r30, r24
 1c6:	24 83       	std	Z+4, r18	; 0x04
		PORTC.DIRSET=0b01000000;		//set PC6 as output (output = 1, input = 0)
 1c8:	80 e4       	ldi	r24, 0x40	; 64
 1ca:	96 e0       	ldi	r25, 0x06	; 6
 1cc:	20 e4       	ldi	r18, 0x40	; 64
 1ce:	fc 01       	movw	r30, r24
 1d0:	21 83       	std	Z+1, r18	; 0x01
		
		//Poorten acc X, Y , Z staan op PA0 , PA1 en PA2 + GDN op PA4
		
		//PORTA.DIRCLR= 0b11110001;			//Set Input
		
}
 1d2:	df 91       	pop	r29
 1d4:	cf 91       	pop	r28
 1d6:	08 95       	ret

000001d8 <AccGetXAxisRaw>:
unsigned int AccGetXAxisRaw(void)
{
 1d8:	cf 93       	push	r28
 1da:	df 93       	push	r29
 1dc:	cd b7       	in	r28, 0x3d	; 61
 1de:	de b7       	in	r29, 0x3e	; 62
	//gebruik maken van de AnalogGetCh() methode
	return AnalogGetCh(0, 4);
 1e0:	64 e0       	ldi	r22, 0x04	; 4
 1e2:	70 e0       	ldi	r23, 0x00	; 0
 1e4:	80 e0       	ldi	r24, 0x00	; 0
 1e6:	90 e0       	ldi	r25, 0x00	; 0
 1e8:	0e 94 2e 01 	call	0x25c	; 0x25c <AnalogGetCh>
}
 1ec:	df 91       	pop	r29
 1ee:	cf 91       	pop	r28
 1f0:	08 95       	ret

000001f2 <AccGetYAxisRaw>:
unsigned int AccGetYAxisRaw(void)
{
 1f2:	cf 93       	push	r28
 1f4:	df 93       	push	r29
 1f6:	cd b7       	in	r28, 0x3d	; 61
 1f8:	de b7       	in	r29, 0x3e	; 62
	//gebruik maken van de AnalogGetCh() methode
	return AnalogGetCh(1, 4);
 1fa:	64 e0       	ldi	r22, 0x04	; 4
 1fc:	70 e0       	ldi	r23, 0x00	; 0
 1fe:	81 e0       	ldi	r24, 0x01	; 1
 200:	90 e0       	ldi	r25, 0x00	; 0
 202:	0e 94 2e 01 	call	0x25c	; 0x25c <AnalogGetCh>
}
 206:	df 91       	pop	r29
 208:	cf 91       	pop	r28
 20a:	08 95       	ret

0000020c <AccGetZAxisRaw>:
unsigned int AccGetZAxisRaw(void)
{
 20c:	cf 93       	push	r28
 20e:	df 93       	push	r29
 210:	cd b7       	in	r28, 0x3d	; 61
 212:	de b7       	in	r29, 0x3e	; 62
	//gebruik maken van de AnalogGetCh() methode
	return AnalogGetCh(2, 4);
 214:	64 e0       	ldi	r22, 0x04	; 4
 216:	70 e0       	ldi	r23, 0x00	; 0
 218:	82 e0       	ldi	r24, 0x02	; 2
 21a:	90 e0       	ldi	r25, 0x00	; 0
 21c:	0e 94 2e 01 	call	0x25c	; 0x25c <AnalogGetCh>
}
 220:	df 91       	pop	r29
 222:	cf 91       	pop	r28
 224:	08 95       	ret

00000226 <AnalogInit>:
#include "Analog.h"
#include <avr/io.h>

void AnalogInit(void)
{
 226:	cf 93       	push	r28
 228:	df 93       	push	r29
 22a:	cd b7       	in	r28, 0x3d	; 61
 22c:	de b7       	in	r29, 0x3e	; 62
	//set reference to internal 1V reference
	ADCA.REFCTRL=0b00000010;		//Setting this bit enables the bandgap for ADC measurement
 22e:	80 e0       	ldi	r24, 0x00	; 0
 230:	92 e0       	ldi	r25, 0x02	; 2
 232:	22 e0       	ldi	r18, 0x02	; 2
 234:	fc 01       	movw	r30, r24
 236:	22 83       	std	Z+2, r18	; 0x02
	//enable the ADC
	ADCA.CTRLA=0b00000001;
 238:	80 e0       	ldi	r24, 0x00	; 0
 23a:	92 e0       	ldi	r25, 0x02	; 2
 23c:	21 e0       	ldi	r18, 0x01	; 1
 23e:	fc 01       	movw	r30, r24
 240:	20 83       	st	Z, r18
	// default settings for resolution and conversion mode
	//DIV8
	ADCA.CTRLB=0b00000100;
 242:	80 e0       	ldi	r24, 0x00	; 0
 244:	92 e0       	ldi	r25, 0x02	; 2
 246:	24 e0       	ldi	r18, 0x04	; 4
 248:	fc 01       	movw	r30, r24
 24a:	21 83       	std	Z+1, r18	; 0x01
	
	//prescaler ADC!!!!!!!!!
	ADCA.PRESCALER = 0b00000010;	//define the ADC clock relative to the peripheral clock. DIV16
 24c:	80 e0       	ldi	r24, 0x00	; 0
 24e:	92 e0       	ldi	r25, 0x02	; 2
 250:	22 e0       	ldi	r18, 0x02	; 2
 252:	fc 01       	movw	r30, r24
 254:	24 83       	std	Z+4, r18	; 0x04
}
 256:	df 91       	pop	r29
 258:	cf 91       	pop	r28
 25a:	08 95       	ret

0000025c <AnalogGetCh>:
int AnalogGetCh(int PinPos,int PinNeg)
{
 25c:	cf 93       	push	r28
 25e:	df 93       	push	r29
 260:	00 d0       	rcall	.+0      	; 0x262 <AnalogGetCh+0x6>
 262:	00 d0       	rcall	.+0      	; 0x264 <AnalogGetCh+0x8>
 264:	cd b7       	in	r28, 0x3d	; 61
 266:	de b7       	in	r29, 0x3e	; 62
 268:	89 83       	std	Y+1, r24	; 0x01
 26a:	9a 83       	std	Y+2, r25	; 0x02
 26c:	6b 83       	std	Y+3, r22	; 0x03
 26e:	7c 83       	std	Y+4, r23	; 0x04
	//Config with parameters
	ADCA.CH0.MUXCTRL = (PinPos & 0x0F) << 3;
 270:	80 e0       	ldi	r24, 0x00	; 0
 272:	92 e0       	ldi	r25, 0x02	; 2
 274:	29 81       	ldd	r18, Y+1	; 0x01
 276:	2f 70       	andi	r18, 0x0F	; 15
 278:	22 0f       	add	r18, r18
 27a:	22 0f       	add	r18, r18
 27c:	22 0f       	add	r18, r18
 27e:	fc 01       	movw	r30, r24
 280:	21 a3       	std	Z+33, r18	; 0x21
	ADCA.CH0.MUXCTRL = (PinNeg & 0x0F); //| (PinNeg & 0x07);
 282:	80 e0       	ldi	r24, 0x00	; 0
 284:	92 e0       	ldi	r25, 0x02	; 2
 286:	2b 81       	ldd	r18, Y+3	; 0x03
 288:	2f 70       	andi	r18, 0x0F	; 15
 28a:	fc 01       	movw	r30, r24
 28c:	21 a3       	std	Z+33, r18	; 0x21
	
	//Start meting (NO freerun)
	ADCA.CTRLA = (0b00000100 | ADCA.CTRLA);
 28e:	80 e0       	ldi	r24, 0x00	; 0
 290:	92 e0       	ldi	r25, 0x02	; 2
 292:	20 e0       	ldi	r18, 0x00	; 0
 294:	32 e0       	ldi	r19, 0x02	; 2
 296:	f9 01       	movw	r30, r18
 298:	20 81       	ld	r18, Z
 29a:	24 60       	ori	r18, 0x04	; 4
 29c:	fc 01       	movw	r30, r24
 29e:	20 83       	st	Z, r18
	
	//Wait for measure result
	while(ADCA.CH0.INTFLAGS != 0b00000001) { }	//set flag is set when the ADC conversion is complete
 2a0:	00 00       	nop
 2a2:	80 e0       	ldi	r24, 0x00	; 0
 2a4:	92 e0       	ldi	r25, 0x02	; 2
 2a6:	fc 01       	movw	r30, r24
 2a8:	83 a1       	ldd	r24, Z+35	; 0x23
 2aa:	81 30       	cpi	r24, 0x01	; 1
 2ac:	d1 f7       	brne	.-12     	; 0x2a2 <AnalogGetCh+0x46>
	ADCA.CH0.INTFLAGS = 0xFF;
 2ae:	80 e0       	ldi	r24, 0x00	; 0
 2b0:	92 e0       	ldi	r25, 0x02	; 2
 2b2:	2f ef       	ldi	r18, 0xFF	; 255
 2b4:	fc 01       	movw	r30, r24
 2b6:	23 a3       	std	Z+35, r18	; 0x23
	//Get result
	return ADCA.CH0RES;
 2b8:	80 e0       	ldi	r24, 0x00	; 0
 2ba:	92 e0       	ldi	r25, 0x02	; 2
 2bc:	fc 01       	movw	r30, r24
 2be:	80 89       	ldd	r24, Z+16	; 0x10
 2c0:	91 89       	ldd	r25, Z+17	; 0x11
 2c2:	24 96       	adiw	r28, 0x04	; 4
 2c4:	cd bf       	out	0x3d, r28	; 61
 2c6:	de bf       	out	0x3e, r29	; 62
 2c8:	df 91       	pop	r29
 2ca:	cf 91       	pop	r28
 2cc:	08 95       	ret

000002ce <ClockInit>:
#pragma GCC push_options
#pragma GCC optimize ("O2") //This function must be optimized to avoid too long time interval betwee CCP write and CLK.CTRL write (4 CLK CYC max)

void ClockInit(void)
{
	OSC.XOSCCTRL=0b11001011; //Clock<=16MHz	
 2ce:	8b ec       	ldi	r24, 0xCB	; 203
 2d0:	80 93 52 00 	sts	0x0052, r24
	OSC.CTRL=0b01000; //Enable oscillator	
 2d4:	88 e0       	ldi	r24, 0x08	; 8
 2d6:	80 93 50 00 	sts	0x0050, r24
	while (!(OSC.STATUS&0b1000)); //Wait until XTAL osc is ready
 2da:	80 91 51 00 	lds	r24, 0x0051
 2de:	83 ff       	sbrs	r24, 3
 2e0:	fc cf       	rjmp	.-8      	; 0x2da <ClockInit+0xc>
	
	//Select XTAL osc as system CLK source
	CCP=0xd8;
 2e2:	88 ed       	ldi	r24, 0xD8	; 216
 2e4:	84 bf       	out	0x34, r24	; 52
    CLK.CTRL=0b0011;
 2e6:	83 e0       	ldi	r24, 0x03	; 3
 2e8:	80 93 40 00 	sts	0x0040, r24
 2ec:	08 95       	ret

000002ee <EncoderInit>:
#include <util/delay.h>
#include <stdio.h>
#include "encoder.h"

void EncoderInit(void)
{
 2ee:	cf 93       	push	r28
 2f0:	df 93       	push	r29
 2f2:	cd b7       	in	r28, 0x3d	; 61
 2f4:	de b7       	in	r29, 0x3e	; 62

}
 2f6:	df 91       	pop	r29
 2f8:	cf 91       	pop	r28
 2fa:	08 95       	ret

000002fc <main>:

void SimpleFunction(void);	//A simple function: transmit digits 0 to 9 to the terminal device
void RunLight(void);

int main(void)
{	
 2fc:	cf 93       	push	r28
 2fe:	df 93       	push	r29
 300:	cd b7       	in	r28, 0x3d	; 61
 302:	de b7       	in	r29, 0x3e	; 62
 304:	2e 97       	sbiw	r28, 0x0e	; 14
 306:	cd bf       	out	0x3d, r28	; 61
 308:	de bf       	out	0x3e, r29	; 62
	//###1###
	 
	//Initialize subsystems
	ClockInit();			//Initialize system clock (16 MHz)
 30a:	0e 94 67 01 	call	0x2ce	; 0x2ce <ClockInit>
	USARTInit();			//Initialize USART and bind to stdout,stdin
 30e:	0e 94 cf 02 	call	0x59e	; 0x59e <USARTInit>
	AnalogInit();			//Initialize ADC
 312:	0e 94 13 01 	call	0x226	; 0x226 <AnalogInit>
	AccInit();				//Initialize accelerometer system
 316:	0e 94 d5 00 	call	0x1aa	; 0x1aa <AccInit>
	LEDInit();				//Initialize LEDs
 31a:	0e 94 6a 02 	call	0x4d4	; 0x4d4 <LEDInit>
	SwitchInit();			//Initialize switches
 31e:	0e 94 aa 02 	call	0x554	; 0x554 <SwitchInit>
	EncoderInit();			//Initialize encoder
 322:	0e 94 77 01 	call	0x2ee	; 0x2ee <EncoderInit>
	SpeakerInit();			//Initialize speaker system
 326:	0e 94 a3 02 	call	0x546	; 0x546 <SpeakerInit>
	
	//Enable interrupts
	PMIC.CTRL|=0b00000111;  //Enable low, medium, high priority interrupts
 32a:	80 ea       	ldi	r24, 0xA0	; 160
 32c:	90 e0       	ldi	r25, 0x00	; 0
 32e:	20 ea       	ldi	r18, 0xA0	; 160
 330:	30 e0       	ldi	r19, 0x00	; 0
 332:	f9 01       	movw	r30, r18
 334:	22 81       	ldd	r18, Z+2	; 0x02
 336:	27 60       	ori	r18, 0x07	; 7
 338:	fc 01       	movw	r30, r24
 33a:	22 83       	std	Z+2, r18	; 0x02
	SREG|=0b10000000;		//Globale interrupt enable
 33c:	8f e3       	ldi	r24, 0x3F	; 63
 33e:	90 e0       	ldi	r25, 0x00	; 0
 340:	2f e3       	ldi	r18, 0x3F	; 63
 342:	30 e0       	ldi	r19, 0x00	; 0
 344:	f9 01       	movw	r30, r18
 346:	20 81       	ld	r18, Z
 348:	20 68       	ori	r18, 0x80	; 128
 34a:	fc 01       	movw	r30, r24
 34c:	20 83       	st	Z, r18
	}*/	

	//###3###

	//Main program loop
	AccInit();
 34e:	0e 94 d5 00 	call	0x1aa	; 0x1aa <AccInit>
	a=0;
 352:	10 92 33 20 	sts	0x2033, r1
    while(1)
    {
		RunLight();
 356:	0e 94 52 02 	call	0x4a4	; 0x4a4 <RunLight>
		//printf("$SWITCH %d\r\n", SwitchGet());
		//printf("%d",terminalByte);
		PrintADC();
 35a:	0e 94 22 02 	call	0x444	; 0x444 <PrintADC>
 35e:	80 e0       	ldi	r24, 0x00	; 0
 360:	90 e0       	ldi	r25, 0x00	; 0
 362:	a8 e4       	ldi	r26, 0x48	; 72
 364:	b3 e4       	ldi	r27, 0x43	; 67
 366:	89 83       	std	Y+1, r24	; 0x01
 368:	9a 83       	std	Y+2, r25	; 0x02
 36a:	ab 83       	std	Y+3, r26	; 0x03
 36c:	bc 83       	std	Y+4, r27	; 0x04

	__builtin_avr_delay_cycles(__ticks_dc);

#else
	uint16_t __ticks;
	__tmp = ((F_CPU) / 4e3) * __ms;
 36e:	20 e0       	ldi	r18, 0x00	; 0
 370:	30 e0       	ldi	r19, 0x00	; 0
 372:	4a e7       	ldi	r20, 0x7A	; 122
 374:	55 e4       	ldi	r21, 0x45	; 69
 376:	69 81       	ldd	r22, Y+1	; 0x01
 378:	7a 81       	ldd	r23, Y+2	; 0x02
 37a:	8b 81       	ldd	r24, Y+3	; 0x03
 37c:	9c 81       	ldd	r25, Y+4	; 0x04
 37e:	0e 94 c4 03 	call	0x788	; 0x788 <__mulsf3>
 382:	dc 01       	movw	r26, r24
 384:	cb 01       	movw	r24, r22
 386:	8d 83       	std	Y+5, r24	; 0x05
 388:	9e 83       	std	Y+6, r25	; 0x06
 38a:	af 83       	std	Y+7, r26	; 0x07
 38c:	b8 87       	std	Y+8, r27	; 0x08
	if (__tmp < 1.0)
 38e:	20 e0       	ldi	r18, 0x00	; 0
 390:	30 e0       	ldi	r19, 0x00	; 0
 392:	40 e8       	ldi	r20, 0x80	; 128
 394:	5f e3       	ldi	r21, 0x3F	; 63
 396:	6d 81       	ldd	r22, Y+5	; 0x05
 398:	7e 81       	ldd	r23, Y+6	; 0x06
 39a:	8f 81       	ldd	r24, Y+7	; 0x07
 39c:	98 85       	ldd	r25, Y+8	; 0x08
 39e:	0e 94 43 03 	call	0x686	; 0x686 <__cmpsf2>
 3a2:	88 23       	and	r24, r24
 3a4:	2c f4       	brge	.+10     	; 0x3b0 <main+0xb4>
		__ticks = 1;
 3a6:	81 e0       	ldi	r24, 0x01	; 1
 3a8:	90 e0       	ldi	r25, 0x00	; 0
 3aa:	89 87       	std	Y+9, r24	; 0x09
 3ac:	9a 87       	std	Y+10, r25	; 0x0a
 3ae:	3f c0       	rjmp	.+126    	; 0x42e <main+0x132>
	else if (__tmp > 65535)
 3b0:	20 e0       	ldi	r18, 0x00	; 0
 3b2:	3f ef       	ldi	r19, 0xFF	; 255
 3b4:	4f e7       	ldi	r20, 0x7F	; 127
 3b6:	57 e4       	ldi	r21, 0x47	; 71
 3b8:	6d 81       	ldd	r22, Y+5	; 0x05
 3ba:	7e 81       	ldd	r23, Y+6	; 0x06
 3bc:	8f 81       	ldd	r24, Y+7	; 0x07
 3be:	98 85       	ldd	r25, Y+8	; 0x08
 3c0:	0e 94 c0 03 	call	0x780	; 0x780 <__gesf2>
 3c4:	18 16       	cp	r1, r24
 3c6:	4c f5       	brge	.+82     	; 0x41a <main+0x11e>
	{
		//	__ticks = requested delay in 1/10 ms
		__ticks = (uint16_t) (__ms * 10.0);
 3c8:	20 e0       	ldi	r18, 0x00	; 0
 3ca:	30 e0       	ldi	r19, 0x00	; 0
 3cc:	40 e2       	ldi	r20, 0x20	; 32
 3ce:	51 e4       	ldi	r21, 0x41	; 65
 3d0:	69 81       	ldd	r22, Y+1	; 0x01
 3d2:	7a 81       	ldd	r23, Y+2	; 0x02
 3d4:	8b 81       	ldd	r24, Y+3	; 0x03
 3d6:	9c 81       	ldd	r25, Y+4	; 0x04
 3d8:	0e 94 c4 03 	call	0x788	; 0x788 <__mulsf3>
 3dc:	dc 01       	movw	r26, r24
 3de:	cb 01       	movw	r24, r22
 3e0:	bc 01       	movw	r22, r24
 3e2:	cd 01       	movw	r24, r26
 3e4:	0e 94 47 03 	call	0x68e	; 0x68e <__fixunssfsi>
 3e8:	dc 01       	movw	r26, r24
 3ea:	cb 01       	movw	r24, r22
 3ec:	89 87       	std	Y+9, r24	; 0x09
 3ee:	9a 87       	std	Y+10, r25	; 0x0a
 3f0:	0f c0       	rjmp	.+30     	; 0x410 <main+0x114>
 3f2:	80 e9       	ldi	r24, 0x90	; 144
 3f4:	91 e0       	ldi	r25, 0x01	; 1
 3f6:	8b 87       	std	Y+11, r24	; 0x0b
 3f8:	9c 87       	std	Y+12, r25	; 0x0c
    milliseconds can be achieved.
 */
void
_delay_loop_2(uint16_t __count)
{
	__asm__ volatile (
 3fa:	8b 85       	ldd	r24, Y+11	; 0x0b
 3fc:	9c 85       	ldd	r25, Y+12	; 0x0c
 3fe:	01 97       	sbiw	r24, 0x01	; 1
 400:	f1 f7       	brne	.-4      	; 0x3fe <main+0x102>
 402:	8b 87       	std	Y+11, r24	; 0x0b
 404:	9c 87       	std	Y+12, r25	; 0x0c
		while(__ticks)
		{
			// wait 1/10 ms
			_delay_loop_2(((F_CPU) / 4e3) / 10);
			__ticks --;
 406:	89 85       	ldd	r24, Y+9	; 0x09
 408:	9a 85       	ldd	r25, Y+10	; 0x0a
 40a:	01 97       	sbiw	r24, 0x01	; 1
 40c:	89 87       	std	Y+9, r24	; 0x09
 40e:	9a 87       	std	Y+10, r25	; 0x0a
		__ticks = 1;
	else if (__tmp > 65535)
	{
		//	__ticks = requested delay in 1/10 ms
		__ticks = (uint16_t) (__ms * 10.0);
		while(__ticks)
 410:	89 85       	ldd	r24, Y+9	; 0x09
 412:	9a 85       	ldd	r25, Y+10	; 0x0a
 414:	00 97       	sbiw	r24, 0x00	; 0
 416:	69 f7       	brne	.-38     	; 0x3f2 <main+0xf6>
		_delay_ms(200);
    }
 418:	9e cf       	rjmp	.-196    	; 0x356 <main+0x5a>
			__ticks --;
		}
		return;
	}
	else
		__ticks = (uint16_t)__tmp;
 41a:	6d 81       	ldd	r22, Y+5	; 0x05
 41c:	7e 81       	ldd	r23, Y+6	; 0x06
 41e:	8f 81       	ldd	r24, Y+7	; 0x07
 420:	98 85       	ldd	r25, Y+8	; 0x08
 422:	0e 94 47 03 	call	0x68e	; 0x68e <__fixunssfsi>
 426:	dc 01       	movw	r26, r24
 428:	cb 01       	movw	r24, r22
 42a:	89 87       	std	Y+9, r24	; 0x09
 42c:	9a 87       	std	Y+10, r25	; 0x0a
 42e:	89 85       	ldd	r24, Y+9	; 0x09
 430:	9a 85       	ldd	r25, Y+10	; 0x0a
 432:	8d 87       	std	Y+13, r24	; 0x0d
 434:	9e 87       	std	Y+14, r25	; 0x0e
 436:	8d 85       	ldd	r24, Y+13	; 0x0d
 438:	9e 85       	ldd	r25, Y+14	; 0x0e
 43a:	01 97       	sbiw	r24, 0x01	; 1
 43c:	f1 f7       	brne	.-4      	; 0x43a <main+0x13e>
 43e:	8d 87       	std	Y+13, r24	; 0x0d
 440:	9e 87       	std	Y+14, r25	; 0x0e
 442:	89 cf       	rjmp	.-238    	; 0x356 <main+0x5a>

00000444 <PrintADC>:
{
	for (b=0;b<10;b++)
		printf ("%d ",b);
}

void PrintADC(void) {
 444:	ef 92       	push	r14
 446:	ff 92       	push	r15
 448:	0f 93       	push	r16
 44a:	1f 93       	push	r17
 44c:	cf 93       	push	r28
 44e:	df 93       	push	r29
 450:	cd b7       	in	r28, 0x3d	; 61
 452:	de b7       	in	r29, 0x3e	; 62
	//AnalogInit();
	printf("$ACC__ x: %d. y: %d. z: %d. \r\n", AccGetXAxisRaw(), AccGetYAxisRaw(), AccGetZAxisRaw());
 454:	0e 94 06 01 	call	0x20c	; 0x20c <AccGetZAxisRaw>
 458:	7c 01       	movw	r14, r24
 45a:	0e 94 f9 00 	call	0x1f2	; 0x1f2 <AccGetYAxisRaw>
 45e:	8c 01       	movw	r16, r24
 460:	0e 94 ec 00 	call	0x1d8	; 0x1d8 <AccGetXAxisRaw>
 464:	2f 2d       	mov	r18, r15
 466:	2f 93       	push	r18
 468:	2e 2d       	mov	r18, r14
 46a:	2f 93       	push	r18
 46c:	21 2f       	mov	r18, r17
 46e:	2f 93       	push	r18
 470:	20 2f       	mov	r18, r16
 472:	2f 93       	push	r18
 474:	29 2f       	mov	r18, r25
 476:	2f 93       	push	r18
 478:	8f 93       	push	r24
 47a:	83 e1       	ldi	r24, 0x13	; 19
 47c:	90 e2       	ldi	r25, 0x20	; 32
 47e:	89 2f       	mov	r24, r25
 480:	8f 93       	push	r24
 482:	83 e1       	ldi	r24, 0x13	; 19
 484:	90 e2       	ldi	r25, 0x20	; 32
 486:	8f 93       	push	r24
 488:	0e 94 4f 04 	call	0x89e	; 0x89e <printf>
 48c:	8d b7       	in	r24, 0x3d	; 61
 48e:	9e b7       	in	r25, 0x3e	; 62
 490:	08 96       	adiw	r24, 0x08	; 8
 492:	cd bf       	out	0x3d, r28	; 61
 494:	de bf       	out	0x3e, r29	; 62
}
 496:	df 91       	pop	r29
 498:	cf 91       	pop	r28
 49a:	1f 91       	pop	r17
 49c:	0f 91       	pop	r16
 49e:	ff 90       	pop	r15
 4a0:	ef 90       	pop	r14
 4a2:	08 95       	ret

000004a4 <RunLight>:

void RunLight(void)
{
 4a4:	cf 93       	push	r28
 4a6:	df 93       	push	r29
 4a8:	cd b7       	in	r28, 0x3d	; 61
 4aa:	de b7       	in	r29, 0x3e	; 62
	if(ledOn == 0x08)							//4de bit actief (led: D4)
 4ac:	80 91 00 20 	lds	r24, 0x2000
 4b0:	88 30       	cpi	r24, 0x08	; 8
 4b2:	21 f4       	brne	.+8      	; 0x4bc <RunLight+0x18>
	{
		//0000 1000
		ledOn = 0x01;							//1ste bit actief (led: D1)
 4b4:	81 e0       	ldi	r24, 0x01	; 1
 4b6:	80 93 00 20 	sts	0x2000, r24
 4ba:	05 c0       	rjmp	.+10     	; 0x4c6 <RunLight+0x22>
		//printf("ledOn = 0x01\r\n");
	}
	else
	{
		ledOn = ledOn << 1; 					//Actieve bit links shiften
 4bc:	80 91 00 20 	lds	r24, 0x2000
 4c0:	88 0f       	add	r24, r24
 4c2:	80 93 00 20 	sts	0x2000, r24
		//printf("ledOn shifted left\r\n", ledOn);
	}
	
	LEDSet(ledOn);
 4c6:	80 91 00 20 	lds	r24, 0x2000
 4ca:	0e 94 8a 02 	call	0x514	; 0x514 <LEDSet>
 4ce:	df 91       	pop	r29
 4d0:	cf 91       	pop	r28
 4d2:	08 95       	ret

000004d4 <LEDInit>:
#include "LED.h"
#include <avr/io.h>

void LEDInit(void)
{
 4d4:	cf 93       	push	r28
 4d6:	df 93       	push	r29
 4d8:	cd b7       	in	r28, 0x3d	; 61
 4da:	de b7       	in	r29, 0x3e	; 62
	PORTE.DIRSET= 0b00001111;	//set output
 4dc:	80 e8       	ldi	r24, 0x80	; 128
 4de:	96 e0       	ldi	r25, 0x06	; 6
 4e0:	2f e0       	ldi	r18, 0x0F	; 15
 4e2:	fc 01       	movw	r30, r24
 4e4:	21 83       	std	Z+1, r18	; 0x01
	PORTE.PIN0CTRL= 0b01000000;	//6: invert, 5-3: output conf: pull down, 2-0: input conf: rising edge -- output maakt niet uit
 4e6:	80 e8       	ldi	r24, 0x80	; 128
 4e8:	96 e0       	ldi	r25, 0x06	; 6
 4ea:	20 e4       	ldi	r18, 0x40	; 64
 4ec:	fc 01       	movw	r30, r24
 4ee:	20 8b       	std	Z+16, r18	; 0x10
	PORTE.PIN1CTRL= 0b01000000;
 4f0:	80 e8       	ldi	r24, 0x80	; 128
 4f2:	96 e0       	ldi	r25, 0x06	; 6
 4f4:	20 e4       	ldi	r18, 0x40	; 64
 4f6:	fc 01       	movw	r30, r24
 4f8:	21 8b       	std	Z+17, r18	; 0x11
	PORTE.PIN2CTRL= 0b01000000;
 4fa:	80 e8       	ldi	r24, 0x80	; 128
 4fc:	96 e0       	ldi	r25, 0x06	; 6
 4fe:	20 e4       	ldi	r18, 0x40	; 64
 500:	fc 01       	movw	r30, r24
 502:	22 8b       	std	Z+18, r18	; 0x12
	PORTE.PIN3CTRL= 0b01000000;
 504:	80 e8       	ldi	r24, 0x80	; 128
 506:	96 e0       	ldi	r25, 0x06	; 6
 508:	20 e4       	ldi	r18, 0x40	; 64
 50a:	fc 01       	movw	r30, r24
 50c:	23 8b       	std	Z+19, r18	; 0x13
	
}
 50e:	df 91       	pop	r29
 510:	cf 91       	pop	r28
 512:	08 95       	ret

00000514 <LEDSet>:
void LEDSet(char bitmask)
{
 514:	cf 93       	push	r28
 516:	df 93       	push	r29
 518:	1f 92       	push	r1
 51a:	cd b7       	in	r28, 0x3d	; 61
 51c:	de b7       	in	r29, 0x3e	; 62
 51e:	89 83       	std	Y+1, r24	; 0x01
	//and-functie om enkel eerste 4 bits over te houden (B0 --> B3)
	//bitmask:		0110 0101
	//0x0F:			0000 1111
	//bitmask -->	0000 0101
	bitmask	= bitmask & 0x0F;
 520:	89 81       	ldd	r24, Y+1	; 0x01
 522:	8f 70       	andi	r24, 0x0F	; 15
 524:	89 83       	std	Y+1, r24	; 0x01
	//OUT:			1100 0110
	//0xF0: &		1111 0000
	//OUT -->		1100 0000 laatste 4 bits onthouden
	//bitmask: |	0000 0101
	//OUT -->		1100 0101 originele OUT en bitmask samengevoegd
	PORTE.OUT= (PORTE.OUT & 0xF0) | bitmask;
 526:	80 e8       	ldi	r24, 0x80	; 128
 528:	96 e0       	ldi	r25, 0x06	; 6
 52a:	20 e8       	ldi	r18, 0x80	; 128
 52c:	36 e0       	ldi	r19, 0x06	; 6
 52e:	f9 01       	movw	r30, r18
 530:	24 81       	ldd	r18, Z+4	; 0x04
 532:	32 2f       	mov	r19, r18
 534:	30 7f       	andi	r19, 0xF0	; 240
 536:	29 81       	ldd	r18, Y+1	; 0x01
 538:	23 2b       	or	r18, r19
 53a:	fc 01       	movw	r30, r24
 53c:	24 83       	std	Z+4, r18	; 0x04
 53e:	0f 90       	pop	r0
 540:	df 91       	pop	r29
 542:	cf 91       	pop	r28
 544:	08 95       	ret

00000546 <SpeakerInit>:
#include <avr/io.h>
#include <avr/interrupt.h>
#include "speaker.h"

void SpeakerInit(void)
{
 546:	cf 93       	push	r28
 548:	df 93       	push	r29
 54a:	cd b7       	in	r28, 0x3d	; 61
 54c:	de b7       	in	r29, 0x3e	; 62
		//TCC1.CTRLB=
		//TCC1.CTRLC=
		//TCC1.CTRLD=
		//TCC1.CTRLE=
		
}
 54e:	df 91       	pop	r29
 550:	cf 91       	pop	r28
 552:	08 95       	ret

00000554 <SwitchInit>:
#include "switch.h"
#include <avr/io.h>

void SwitchInit(void)
{
 554:	cf 93       	push	r28
 556:	df 93       	push	r29
 558:	cd b7       	in	r28, 0x3d	; 61
 55a:	de b7       	in	r29, 0x3e	; 62
	PORTD.DIRCLR= 0b11110001;			//Set Input
 55c:	80 e6       	ldi	r24, 0x60	; 96
 55e:	96 e0       	ldi	r25, 0x06	; 6
 560:	21 ef       	ldi	r18, 0xF1	; 241
 562:	fc 01       	movw	r30, r24
 564:	22 83       	std	Z+2, r18	; 0x02
	PORTD.PIN0CTRL= 0b01011001;		//6: invert, 5-3: output conf: pull up, 2-0: input conf: rising edge
 566:	80 e6       	ldi	r24, 0x60	; 96
 568:	96 e0       	ldi	r25, 0x06	; 6
 56a:	29 e5       	ldi	r18, 0x59	; 89
 56c:	fc 01       	movw	r30, r24
 56e:	20 8b       	std	Z+16, r18	; 0x10
	PORTD.PIN4CTRL= 0b01011001;
 570:	80 e6       	ldi	r24, 0x60	; 96
 572:	96 e0       	ldi	r25, 0x06	; 6
 574:	29 e5       	ldi	r18, 0x59	; 89
 576:	fc 01       	movw	r30, r24
 578:	24 8b       	std	Z+20, r18	; 0x14
	PORTD.PIN5CTRL= 0b01011001;
 57a:	80 e6       	ldi	r24, 0x60	; 96
 57c:	96 e0       	ldi	r25, 0x06	; 6
 57e:	29 e5       	ldi	r18, 0x59	; 89
 580:	fc 01       	movw	r30, r24
 582:	25 8b       	std	Z+21, r18	; 0x15
	PORTD.PIN6CTRL= 0b01011001;
 584:	80 e6       	ldi	r24, 0x60	; 96
 586:	96 e0       	ldi	r25, 0x06	; 6
 588:	29 e5       	ldi	r18, 0x59	; 89
 58a:	fc 01       	movw	r30, r24
 58c:	26 8b       	std	Z+22, r18	; 0x16
	PORTD.PIN7CTRL= 0b01011001;
 58e:	80 e6       	ldi	r24, 0x60	; 96
 590:	96 e0       	ldi	r25, 0x06	; 6
 592:	29 e5       	ldi	r18, 0x59	; 89
 594:	fc 01       	movw	r30, r24
 596:	27 8b       	std	Z+23, r18	; 0x17
}
 598:	df 91       	pop	r29
 59a:	cf 91       	pop	r28
 59c:	08 95       	ret

0000059e <USARTInit>:
static int stdio_getchar(FILE *stream);
//Brug tussen drivercode en stdio library. We kunnen zelf functies schrijven die de onderste laag definiëren van de stdio library.
static FILE UsartStdio = FDEV_SETUP_STREAM(stdio_putchar, stdio_getchar,_FDEV_SETUP_WRITE);

void USARTInit(void)
{
 59e:	cf 93       	push	r28
 5a0:	df 93       	push	r29
 5a2:	cd b7       	in	r28, 0x3d	; 61
 5a4:	de b7       	in	r29, 0x3e	; 62
	//USART_PORT is een macro die in .h geïnitialiseerd is als PORTD of PORTC
	USART_PORT.DIRSET=0b00001000;		//set transmit lijn als output
 5a6:	80 e6       	ldi	r24, 0x60	; 96
 5a8:	96 e0       	ldi	r25, 0x06	; 6
 5aa:	28 e0       	ldi	r18, 0x08	; 8
 5ac:	fc 01       	movw	r30, r24
 5ae:	21 83       	std	Z+1, r18	; 0x01
	USART_PORT.DIRCLR=0b00000100;		//set receive lijn als input
 5b0:	80 e6       	ldi	r24, 0x60	; 96
 5b2:	96 e0       	ldi	r25, 0x06	; 6
 5b4:	24 e0       	ldi	r18, 0x04	; 4
 5b6:	fc 01       	movw	r30, r24
 5b8:	22 83       	std	Z+2, r18	; 0x02
	
	USART.CTRLA=0b00000000;				//set interrupt prioriteit, dit is polled mode (interrupts uitgeschakeld)	
 5ba:	80 ea       	ldi	r24, 0xA0	; 160
 5bc:	99 e0       	ldi	r25, 0x09	; 9
 5be:	fc 01       	movw	r30, r24
 5c0:	13 82       	std	Z+3, r1	; 0x03
	USART.CTRLB=0b00011000;				//transmitter en receiver ingeschakeld. Double speed communicatie uitgeschakeld (16 USART klokcycli per bit)
 5c2:	80 ea       	ldi	r24, 0xA0	; 160
 5c4:	99 e0       	ldi	r25, 0x09	; 9
 5c6:	28 e1       	ldi	r18, 0x18	; 24
 5c8:	fc 01       	movw	r30, r24
 5ca:	24 83       	std	Z+4, r18	; 0x04
	USART.CTRLC=0b00000011;				//asynchrone modus, geen pariteitsbit, 1 stopbit, 8 databits.
 5cc:	80 ea       	ldi	r24, 0xA0	; 160
 5ce:	99 e0       	ldi	r25, 0x09	; 9
 5d0:	23 e0       	ldi	r18, 0x03	; 3
 5d2:	fc 01       	movw	r30, r24
 5d4:	25 83       	std	Z+5, r18	; 0x05
	
	//BSEL=983, BSCALE=-7 --> 115200 baud
	//CTRLA + CTRLB(3:0) vormen de 12 bit value voor de baud rate setting. CTRLB(7:4)=baud rate scale factor
	USART.BAUDCTRLA=0xD7;				//1101 0111
 5d6:	80 ea       	ldi	r24, 0xA0	; 160
 5d8:	99 e0       	ldi	r25, 0x09	; 9
 5da:	27 ed       	ldi	r18, 0xD7	; 215
 5dc:	fc 01       	movw	r30, r24
 5de:	26 83       	std	Z+6, r18	; 0x06
	USART.BAUDCTRLB=0x93;				//1001 0011
 5e0:	80 ea       	ldi	r24, 0xA0	; 160
 5e2:	99 e0       	ldi	r25, 0x09	; 9
 5e4:	23 e9       	ldi	r18, 0x93	; 147
 5e6:	fc 01       	movw	r30, r24
 5e8:	27 83       	std	Z+7, r18	; 0x07
	
	//USART.BAUDCTRLA=0xE5;				//BSEL=3301, BSCALE=-5 -->9600 baud
	//USART.BAUDCTRLB=0xBC;
	
	//Brug tussen drivercode en stdio library.
	stdout=&UsartStdio;
 5ea:	81 e0       	ldi	r24, 0x01	; 1
 5ec:	90 e2       	ldi	r25, 0x20	; 32
 5ee:	80 93 36 20 	sts	0x2036, r24
 5f2:	90 93 37 20 	sts	0x2037, r25
	stdin=&UsartStdio;
 5f6:	81 e0       	ldi	r24, 0x01	; 1
 5f8:	90 e2       	ldi	r25, 0x20	; 32
 5fa:	80 93 34 20 	sts	0x2034, r24
 5fe:	90 93 35 20 	sts	0x2035, r25
}
 602:	df 91       	pop	r29
 604:	cf 91       	pop	r28
 606:	08 95       	ret

00000608 <stdio_putchar>:
	Deze wordt gezet als de databyte verzonden is.
	Om klaar te maken voor een volgende datatransfer moeten we de flag manueel op 0 zetten (door een 1 te schrijven)
	--> stdio_getchar(...)
*/
static int stdio_putchar(char c, FILE * stream)
{
 608:	cf 93       	push	r28
 60a:	df 93       	push	r29
 60c:	00 d0       	rcall	.+0      	; 0x60e <stdio_putchar+0x6>
 60e:	1f 92       	push	r1
 610:	cd b7       	in	r28, 0x3d	; 61
 612:	de b7       	in	r29, 0x3e	; 62
 614:	89 83       	std	Y+1, r24	; 0x01
 616:	6a 83       	std	Y+2, r22	; 0x02
 618:	7b 83       	std	Y+3, r23	; 0x03
	USART.DATA = c;
 61a:	80 ea       	ldi	r24, 0xA0	; 160
 61c:	99 e0       	ldi	r25, 0x09	; 9
 61e:	29 81       	ldd	r18, Y+1	; 0x01
 620:	fc 01       	movw	r30, r24
 622:	20 83       	st	Z, r18
	while (!(USART.STATUS & 0b01000000));
 624:	00 00       	nop
 626:	80 ea       	ldi	r24, 0xA0	; 160
 628:	99 e0       	ldi	r25, 0x09	; 9
 62a:	fc 01       	movw	r30, r24
 62c:	81 81       	ldd	r24, Z+1	; 0x01
 62e:	88 2f       	mov	r24, r24
 630:	90 e0       	ldi	r25, 0x00	; 0
 632:	80 74       	andi	r24, 0x40	; 64
 634:	99 27       	eor	r25, r25
 636:	00 97       	sbiw	r24, 0x00	; 0
 638:	b1 f3       	breq	.-20     	; 0x626 <stdio_putchar+0x1e>
	USART.STATUS=0b01000000;
 63a:	80 ea       	ldi	r24, 0xA0	; 160
 63c:	99 e0       	ldi	r25, 0x09	; 9
 63e:	20 e4       	ldi	r18, 0x40	; 64
 640:	fc 01       	movw	r30, r24
 642:	21 83       	std	Z+1, r18	; 0x01
	return 0;
 644:	80 e0       	ldi	r24, 0x00	; 0
 646:	90 e0       	ldi	r25, 0x00	; 0
}
 648:	23 96       	adiw	r28, 0x03	; 3
 64a:	cd bf       	out	0x3d, r28	; 61
 64c:	de bf       	out	0x3e, r29	; 62
 64e:	df 91       	pop	r29
 650:	cf 91       	pop	r28
 652:	08 95       	ret

00000654 <stdio_getchar>:

/**
	Zet de TXCIF flag naar 0 om een nieuwe datatransfer toe te laten.
*/
static int stdio_getchar(FILE *stream)
{
 654:	cf 93       	push	r28
 656:	df 93       	push	r29
 658:	00 d0       	rcall	.+0      	; 0x65a <stdio_getchar+0x6>
 65a:	cd b7       	in	r28, 0x3d	; 61
 65c:	de b7       	in	r29, 0x3e	; 62
 65e:	89 83       	std	Y+1, r24	; 0x01
 660:	9a 83       	std	Y+2, r25	; 0x02
	while (!(USART.STATUS & 0b10000000));
 662:	00 00       	nop
 664:	80 ea       	ldi	r24, 0xA0	; 160
 666:	99 e0       	ldi	r25, 0x09	; 9
 668:	fc 01       	movw	r30, r24
 66a:	81 81       	ldd	r24, Z+1	; 0x01
 66c:	88 23       	and	r24, r24
 66e:	d4 f7       	brge	.-12     	; 0x664 <stdio_getchar+0x10>
	return USART.DATA;
 670:	80 ea       	ldi	r24, 0xA0	; 160
 672:	99 e0       	ldi	r25, 0x09	; 9
 674:	fc 01       	movw	r30, r24
 676:	80 81       	ld	r24, Z
 678:	88 2f       	mov	r24, r24
 67a:	90 e0       	ldi	r25, 0x00	; 0
}
 67c:	0f 90       	pop	r0
 67e:	0f 90       	pop	r0
 680:	df 91       	pop	r29
 682:	cf 91       	pop	r28
 684:	08 95       	ret

00000686 <__cmpsf2>:
 686:	2f d0       	rcall	.+94     	; 0x6e6 <__fp_cmp>
 688:	08 f4       	brcc	.+2      	; 0x68c <__cmpsf2+0x6>
 68a:	81 e0       	ldi	r24, 0x01	; 1
 68c:	08 95       	ret

0000068e <__fixunssfsi>:
 68e:	57 d0       	rcall	.+174    	; 0x73e <__fp_splitA>
 690:	88 f0       	brcs	.+34     	; 0x6b4 <__fixunssfsi+0x26>
 692:	9f 57       	subi	r25, 0x7F	; 127
 694:	90 f0       	brcs	.+36     	; 0x6ba <__fixunssfsi+0x2c>
 696:	b9 2f       	mov	r27, r25
 698:	99 27       	eor	r25, r25
 69a:	b7 51       	subi	r27, 0x17	; 23
 69c:	a0 f0       	brcs	.+40     	; 0x6c6 <__fixunssfsi+0x38>
 69e:	d1 f0       	breq	.+52     	; 0x6d4 <__fixunssfsi+0x46>
 6a0:	66 0f       	add	r22, r22
 6a2:	77 1f       	adc	r23, r23
 6a4:	88 1f       	adc	r24, r24
 6a6:	99 1f       	adc	r25, r25
 6a8:	1a f0       	brmi	.+6      	; 0x6b0 <__fixunssfsi+0x22>
 6aa:	ba 95       	dec	r27
 6ac:	c9 f7       	brne	.-14     	; 0x6a0 <__fixunssfsi+0x12>
 6ae:	12 c0       	rjmp	.+36     	; 0x6d4 <__fixunssfsi+0x46>
 6b0:	b1 30       	cpi	r27, 0x01	; 1
 6b2:	81 f0       	breq	.+32     	; 0x6d4 <__fixunssfsi+0x46>
 6b4:	5e d0       	rcall	.+188    	; 0x772 <__fp_zero>
 6b6:	b1 e0       	ldi	r27, 0x01	; 1
 6b8:	08 95       	ret
 6ba:	5b c0       	rjmp	.+182    	; 0x772 <__fp_zero>
 6bc:	67 2f       	mov	r22, r23
 6be:	78 2f       	mov	r23, r24
 6c0:	88 27       	eor	r24, r24
 6c2:	b8 5f       	subi	r27, 0xF8	; 248
 6c4:	39 f0       	breq	.+14     	; 0x6d4 <__fixunssfsi+0x46>
 6c6:	b9 3f       	cpi	r27, 0xF9	; 249
 6c8:	cc f3       	brlt	.-14     	; 0x6bc <__fixunssfsi+0x2e>
 6ca:	86 95       	lsr	r24
 6cc:	77 95       	ror	r23
 6ce:	67 95       	ror	r22
 6d0:	b3 95       	inc	r27
 6d2:	d9 f7       	brne	.-10     	; 0x6ca <__fixunssfsi+0x3c>
 6d4:	3e f4       	brtc	.+14     	; 0x6e4 <__fixunssfsi+0x56>
 6d6:	90 95       	com	r25
 6d8:	80 95       	com	r24
 6da:	70 95       	com	r23
 6dc:	61 95       	neg	r22
 6de:	7f 4f       	sbci	r23, 0xFF	; 255
 6e0:	8f 4f       	sbci	r24, 0xFF	; 255
 6e2:	9f 4f       	sbci	r25, 0xFF	; 255
 6e4:	08 95       	ret

000006e6 <__fp_cmp>:
 6e6:	99 0f       	add	r25, r25
 6e8:	00 08       	sbc	r0, r0
 6ea:	55 0f       	add	r21, r21
 6ec:	aa 0b       	sbc	r26, r26
 6ee:	e0 e8       	ldi	r30, 0x80	; 128
 6f0:	fe ef       	ldi	r31, 0xFE	; 254
 6f2:	16 16       	cp	r1, r22
 6f4:	17 06       	cpc	r1, r23
 6f6:	e8 07       	cpc	r30, r24
 6f8:	f9 07       	cpc	r31, r25
 6fa:	c0 f0       	brcs	.+48     	; 0x72c <__fp_cmp+0x46>
 6fc:	12 16       	cp	r1, r18
 6fe:	13 06       	cpc	r1, r19
 700:	e4 07       	cpc	r30, r20
 702:	f5 07       	cpc	r31, r21
 704:	98 f0       	brcs	.+38     	; 0x72c <__fp_cmp+0x46>
 706:	62 1b       	sub	r22, r18
 708:	73 0b       	sbc	r23, r19
 70a:	84 0b       	sbc	r24, r20
 70c:	95 0b       	sbc	r25, r21
 70e:	39 f4       	brne	.+14     	; 0x71e <__fp_cmp+0x38>
 710:	0a 26       	eor	r0, r26
 712:	61 f0       	breq	.+24     	; 0x72c <__fp_cmp+0x46>
 714:	23 2b       	or	r18, r19
 716:	24 2b       	or	r18, r20
 718:	25 2b       	or	r18, r21
 71a:	21 f4       	brne	.+8      	; 0x724 <__fp_cmp+0x3e>
 71c:	08 95       	ret
 71e:	0a 26       	eor	r0, r26
 720:	09 f4       	brne	.+2      	; 0x724 <__fp_cmp+0x3e>
 722:	a1 40       	sbci	r26, 0x01	; 1
 724:	a6 95       	lsr	r26
 726:	8f ef       	ldi	r24, 0xFF	; 255
 728:	81 1d       	adc	r24, r1
 72a:	81 1d       	adc	r24, r1
 72c:	08 95       	ret

0000072e <__fp_split3>:
 72e:	57 fd       	sbrc	r21, 7
 730:	90 58       	subi	r25, 0x80	; 128
 732:	44 0f       	add	r20, r20
 734:	55 1f       	adc	r21, r21
 736:	59 f0       	breq	.+22     	; 0x74e <__fp_splitA+0x10>
 738:	5f 3f       	cpi	r21, 0xFF	; 255
 73a:	71 f0       	breq	.+28     	; 0x758 <__fp_splitA+0x1a>
 73c:	47 95       	ror	r20

0000073e <__fp_splitA>:
 73e:	88 0f       	add	r24, r24
 740:	97 fb       	bst	r25, 7
 742:	99 1f       	adc	r25, r25
 744:	61 f0       	breq	.+24     	; 0x75e <__fp_splitA+0x20>
 746:	9f 3f       	cpi	r25, 0xFF	; 255
 748:	79 f0       	breq	.+30     	; 0x768 <__fp_splitA+0x2a>
 74a:	87 95       	ror	r24
 74c:	08 95       	ret
 74e:	12 16       	cp	r1, r18
 750:	13 06       	cpc	r1, r19
 752:	14 06       	cpc	r1, r20
 754:	55 1f       	adc	r21, r21
 756:	f2 cf       	rjmp	.-28     	; 0x73c <__fp_split3+0xe>
 758:	46 95       	lsr	r20
 75a:	f1 df       	rcall	.-30     	; 0x73e <__fp_splitA>
 75c:	08 c0       	rjmp	.+16     	; 0x76e <__fp_splitA+0x30>
 75e:	16 16       	cp	r1, r22
 760:	17 06       	cpc	r1, r23
 762:	18 06       	cpc	r1, r24
 764:	99 1f       	adc	r25, r25
 766:	f1 cf       	rjmp	.-30     	; 0x74a <__fp_splitA+0xc>
 768:	86 95       	lsr	r24
 76a:	71 05       	cpc	r23, r1
 76c:	61 05       	cpc	r22, r1
 76e:	08 94       	sec
 770:	08 95       	ret

00000772 <__fp_zero>:
 772:	e8 94       	clt

00000774 <__fp_szero>:
 774:	bb 27       	eor	r27, r27
 776:	66 27       	eor	r22, r22
 778:	77 27       	eor	r23, r23
 77a:	cb 01       	movw	r24, r22
 77c:	97 f9       	bld	r25, 7
 77e:	08 95       	ret

00000780 <__gesf2>:
 780:	b2 df       	rcall	.-156    	; 0x6e6 <__fp_cmp>
 782:	08 f4       	brcc	.+2      	; 0x786 <__gesf2+0x6>
 784:	8f ef       	ldi	r24, 0xFF	; 255
 786:	08 95       	ret

00000788 <__mulsf3>:
 788:	0b d0       	rcall	.+22     	; 0x7a0 <__mulsf3x>
 78a:	78 c0       	rjmp	.+240    	; 0x87c <__fp_round>
 78c:	69 d0       	rcall	.+210    	; 0x860 <__fp_pscA>
 78e:	28 f0       	brcs	.+10     	; 0x79a <__mulsf3+0x12>
 790:	6e d0       	rcall	.+220    	; 0x86e <__fp_pscB>
 792:	18 f0       	brcs	.+6      	; 0x79a <__mulsf3+0x12>
 794:	95 23       	and	r25, r21
 796:	09 f0       	breq	.+2      	; 0x79a <__mulsf3+0x12>
 798:	5a c0       	rjmp	.+180    	; 0x84e <__fp_inf>
 79a:	5f c0       	rjmp	.+190    	; 0x85a <__fp_nan>
 79c:	11 24       	eor	r1, r1
 79e:	ea cf       	rjmp	.-44     	; 0x774 <__fp_szero>

000007a0 <__mulsf3x>:
 7a0:	c6 df       	rcall	.-116    	; 0x72e <__fp_split3>
 7a2:	a0 f3       	brcs	.-24     	; 0x78c <__mulsf3+0x4>

000007a4 <__mulsf3_pse>:
 7a4:	95 9f       	mul	r25, r21
 7a6:	d1 f3       	breq	.-12     	; 0x79c <__mulsf3+0x14>
 7a8:	95 0f       	add	r25, r21
 7aa:	50 e0       	ldi	r21, 0x00	; 0
 7ac:	55 1f       	adc	r21, r21
 7ae:	62 9f       	mul	r22, r18
 7b0:	f0 01       	movw	r30, r0
 7b2:	72 9f       	mul	r23, r18
 7b4:	bb 27       	eor	r27, r27
 7b6:	f0 0d       	add	r31, r0
 7b8:	b1 1d       	adc	r27, r1
 7ba:	63 9f       	mul	r22, r19
 7bc:	aa 27       	eor	r26, r26
 7be:	f0 0d       	add	r31, r0
 7c0:	b1 1d       	adc	r27, r1
 7c2:	aa 1f       	adc	r26, r26
 7c4:	64 9f       	mul	r22, r20
 7c6:	66 27       	eor	r22, r22
 7c8:	b0 0d       	add	r27, r0
 7ca:	a1 1d       	adc	r26, r1
 7cc:	66 1f       	adc	r22, r22
 7ce:	82 9f       	mul	r24, r18
 7d0:	22 27       	eor	r18, r18
 7d2:	b0 0d       	add	r27, r0
 7d4:	a1 1d       	adc	r26, r1
 7d6:	62 1f       	adc	r22, r18
 7d8:	73 9f       	mul	r23, r19
 7da:	b0 0d       	add	r27, r0
 7dc:	a1 1d       	adc	r26, r1
 7de:	62 1f       	adc	r22, r18
 7e0:	83 9f       	mul	r24, r19
 7e2:	a0 0d       	add	r26, r0
 7e4:	61 1d       	adc	r22, r1
 7e6:	22 1f       	adc	r18, r18
 7e8:	74 9f       	mul	r23, r20
 7ea:	33 27       	eor	r19, r19
 7ec:	a0 0d       	add	r26, r0
 7ee:	61 1d       	adc	r22, r1
 7f0:	23 1f       	adc	r18, r19
 7f2:	84 9f       	mul	r24, r20
 7f4:	60 0d       	add	r22, r0
 7f6:	21 1d       	adc	r18, r1
 7f8:	82 2f       	mov	r24, r18
 7fa:	76 2f       	mov	r23, r22
 7fc:	6a 2f       	mov	r22, r26
 7fe:	11 24       	eor	r1, r1
 800:	9f 57       	subi	r25, 0x7F	; 127
 802:	50 40       	sbci	r21, 0x00	; 0
 804:	8a f0       	brmi	.+34     	; 0x828 <__mulsf3_pse+0x84>
 806:	e1 f0       	breq	.+56     	; 0x840 <__mulsf3_pse+0x9c>
 808:	88 23       	and	r24, r24
 80a:	4a f0       	brmi	.+18     	; 0x81e <__mulsf3_pse+0x7a>
 80c:	ee 0f       	add	r30, r30
 80e:	ff 1f       	adc	r31, r31
 810:	bb 1f       	adc	r27, r27
 812:	66 1f       	adc	r22, r22
 814:	77 1f       	adc	r23, r23
 816:	88 1f       	adc	r24, r24
 818:	91 50       	subi	r25, 0x01	; 1
 81a:	50 40       	sbci	r21, 0x00	; 0
 81c:	a9 f7       	brne	.-22     	; 0x808 <__mulsf3_pse+0x64>
 81e:	9e 3f       	cpi	r25, 0xFE	; 254
 820:	51 05       	cpc	r21, r1
 822:	70 f0       	brcs	.+28     	; 0x840 <__mulsf3_pse+0x9c>
 824:	14 c0       	rjmp	.+40     	; 0x84e <__fp_inf>
 826:	a6 cf       	rjmp	.-180    	; 0x774 <__fp_szero>
 828:	5f 3f       	cpi	r21, 0xFF	; 255
 82a:	ec f3       	brlt	.-6      	; 0x826 <__mulsf3_pse+0x82>
 82c:	98 3e       	cpi	r25, 0xE8	; 232
 82e:	dc f3       	brlt	.-10     	; 0x826 <__mulsf3_pse+0x82>
 830:	86 95       	lsr	r24
 832:	77 95       	ror	r23
 834:	67 95       	ror	r22
 836:	b7 95       	ror	r27
 838:	f7 95       	ror	r31
 83a:	e7 95       	ror	r30
 83c:	9f 5f       	subi	r25, 0xFF	; 255
 83e:	c1 f7       	brne	.-16     	; 0x830 <__mulsf3_pse+0x8c>
 840:	fe 2b       	or	r31, r30
 842:	88 0f       	add	r24, r24
 844:	91 1d       	adc	r25, r1
 846:	96 95       	lsr	r25
 848:	87 95       	ror	r24
 84a:	97 f9       	bld	r25, 7
 84c:	08 95       	ret

0000084e <__fp_inf>:
 84e:	97 f9       	bld	r25, 7
 850:	9f 67       	ori	r25, 0x7F	; 127
 852:	80 e8       	ldi	r24, 0x80	; 128
 854:	70 e0       	ldi	r23, 0x00	; 0
 856:	60 e0       	ldi	r22, 0x00	; 0
 858:	08 95       	ret

0000085a <__fp_nan>:
 85a:	9f ef       	ldi	r25, 0xFF	; 255
 85c:	80 ec       	ldi	r24, 0xC0	; 192
 85e:	08 95       	ret

00000860 <__fp_pscA>:
 860:	00 24       	eor	r0, r0
 862:	0a 94       	dec	r0
 864:	16 16       	cp	r1, r22
 866:	17 06       	cpc	r1, r23
 868:	18 06       	cpc	r1, r24
 86a:	09 06       	cpc	r0, r25
 86c:	08 95       	ret

0000086e <__fp_pscB>:
 86e:	00 24       	eor	r0, r0
 870:	0a 94       	dec	r0
 872:	12 16       	cp	r1, r18
 874:	13 06       	cpc	r1, r19
 876:	14 06       	cpc	r1, r20
 878:	05 06       	cpc	r0, r21
 87a:	08 95       	ret

0000087c <__fp_round>:
 87c:	09 2e       	mov	r0, r25
 87e:	03 94       	inc	r0
 880:	00 0c       	add	r0, r0
 882:	11 f4       	brne	.+4      	; 0x888 <__fp_round+0xc>
 884:	88 23       	and	r24, r24
 886:	52 f0       	brmi	.+20     	; 0x89c <__fp_round+0x20>
 888:	bb 0f       	add	r27, r27
 88a:	40 f4       	brcc	.+16     	; 0x89c <__fp_round+0x20>
 88c:	bf 2b       	or	r27, r31
 88e:	11 f4       	brne	.+4      	; 0x894 <__fp_round+0x18>
 890:	60 ff       	sbrs	r22, 0
 892:	04 c0       	rjmp	.+8      	; 0x89c <__fp_round+0x20>
 894:	6f 5f       	subi	r22, 0xFF	; 255
 896:	7f 4f       	sbci	r23, 0xFF	; 255
 898:	8f 4f       	sbci	r24, 0xFF	; 255
 89a:	9f 4f       	sbci	r25, 0xFF	; 255
 89c:	08 95       	ret

0000089e <printf>:
 89e:	a0 e0       	ldi	r26, 0x00	; 0
 8a0:	b0 e0       	ldi	r27, 0x00	; 0
 8a2:	e5 e5       	ldi	r30, 0x55	; 85
 8a4:	f4 e0       	ldi	r31, 0x04	; 4
 8a6:	0c 94 eb 06 	jmp	0xdd6	; 0xdd6 <__prologue_saves__+0x20>
 8aa:	fe 01       	movw	r30, r28
 8ac:	35 96       	adiw	r30, 0x05	; 5
 8ae:	61 91       	ld	r22, Z+
 8b0:	71 91       	ld	r23, Z+
 8b2:	af 01       	movw	r20, r30
 8b4:	80 91 36 20 	lds	r24, 0x2036
 8b8:	90 91 37 20 	lds	r25, 0x2037
 8bc:	0e 94 63 04 	call	0x8c6	; 0x8c6 <vfprintf>
 8c0:	e2 e0       	ldi	r30, 0x02	; 2
 8c2:	0c 94 04 07 	jmp	0xe08	; 0xe08 <__epilogue_restores__+0x20>

000008c6 <vfprintf>:
 8c6:	ac e0       	ldi	r26, 0x0C	; 12
 8c8:	b0 e0       	ldi	r27, 0x00	; 0
 8ca:	e9 e6       	ldi	r30, 0x69	; 105
 8cc:	f4 e0       	ldi	r31, 0x04	; 4
 8ce:	0c 94 db 06 	jmp	0xdb6	; 0xdb6 <__prologue_saves__>
 8d2:	7c 01       	movw	r14, r24
 8d4:	6b 01       	movw	r12, r22
 8d6:	8a 01       	movw	r16, r20
 8d8:	fc 01       	movw	r30, r24
 8da:	16 82       	std	Z+6, r1	; 0x06
 8dc:	17 82       	std	Z+7, r1	; 0x07
 8de:	83 81       	ldd	r24, Z+3	; 0x03
 8e0:	81 ff       	sbrs	r24, 1
 8e2:	bd c1       	rjmp	.+890    	; 0xc5e <vfprintf+0x398>
 8e4:	ce 01       	movw	r24, r28
 8e6:	01 96       	adiw	r24, 0x01	; 1
 8e8:	4c 01       	movw	r8, r24
 8ea:	f7 01       	movw	r30, r14
 8ec:	93 81       	ldd	r25, Z+3	; 0x03
 8ee:	f6 01       	movw	r30, r12
 8f0:	93 fd       	sbrc	r25, 3
 8f2:	85 91       	lpm	r24, Z+
 8f4:	93 ff       	sbrs	r25, 3
 8f6:	81 91       	ld	r24, Z+
 8f8:	6f 01       	movw	r12, r30
 8fa:	88 23       	and	r24, r24
 8fc:	09 f4       	brne	.+2      	; 0x900 <vfprintf+0x3a>
 8fe:	ab c1       	rjmp	.+854    	; 0xc56 <vfprintf+0x390>
 900:	85 32       	cpi	r24, 0x25	; 37
 902:	39 f4       	brne	.+14     	; 0x912 <vfprintf+0x4c>
 904:	93 fd       	sbrc	r25, 3
 906:	85 91       	lpm	r24, Z+
 908:	93 ff       	sbrs	r25, 3
 90a:	81 91       	ld	r24, Z+
 90c:	6f 01       	movw	r12, r30
 90e:	85 32       	cpi	r24, 0x25	; 37
 910:	29 f4       	brne	.+10     	; 0x91c <vfprintf+0x56>
 912:	b7 01       	movw	r22, r14
 914:	90 e0       	ldi	r25, 0x00	; 0
 916:	0e 94 4b 06 	call	0xc96	; 0xc96 <fputc>
 91a:	e7 cf       	rjmp	.-50     	; 0x8ea <vfprintf+0x24>
 91c:	51 2c       	mov	r5, r1
 91e:	31 2c       	mov	r3, r1
 920:	20 e0       	ldi	r18, 0x00	; 0
 922:	20 32       	cpi	r18, 0x20	; 32
 924:	a0 f4       	brcc	.+40     	; 0x94e <vfprintf+0x88>
 926:	8b 32       	cpi	r24, 0x2B	; 43
 928:	69 f0       	breq	.+26     	; 0x944 <vfprintf+0x7e>
 92a:	30 f4       	brcc	.+12     	; 0x938 <vfprintf+0x72>
 92c:	80 32       	cpi	r24, 0x20	; 32
 92e:	59 f0       	breq	.+22     	; 0x946 <vfprintf+0x80>
 930:	83 32       	cpi	r24, 0x23	; 35
 932:	69 f4       	brne	.+26     	; 0x94e <vfprintf+0x88>
 934:	20 61       	ori	r18, 0x10	; 16
 936:	2c c0       	rjmp	.+88     	; 0x990 <vfprintf+0xca>
 938:	8d 32       	cpi	r24, 0x2D	; 45
 93a:	39 f0       	breq	.+14     	; 0x94a <vfprintf+0x84>
 93c:	80 33       	cpi	r24, 0x30	; 48
 93e:	39 f4       	brne	.+14     	; 0x94e <vfprintf+0x88>
 940:	21 60       	ori	r18, 0x01	; 1
 942:	26 c0       	rjmp	.+76     	; 0x990 <vfprintf+0xca>
 944:	22 60       	ori	r18, 0x02	; 2
 946:	24 60       	ori	r18, 0x04	; 4
 948:	23 c0       	rjmp	.+70     	; 0x990 <vfprintf+0xca>
 94a:	28 60       	ori	r18, 0x08	; 8
 94c:	21 c0       	rjmp	.+66     	; 0x990 <vfprintf+0xca>
 94e:	27 fd       	sbrc	r18, 7
 950:	27 c0       	rjmp	.+78     	; 0x9a0 <vfprintf+0xda>
 952:	30 ed       	ldi	r19, 0xD0	; 208
 954:	38 0f       	add	r19, r24
 956:	3a 30       	cpi	r19, 0x0A	; 10
 958:	78 f4       	brcc	.+30     	; 0x978 <vfprintf+0xb2>
 95a:	26 ff       	sbrs	r18, 6
 95c:	06 c0       	rjmp	.+12     	; 0x96a <vfprintf+0xa4>
 95e:	fa e0       	ldi	r31, 0x0A	; 10
 960:	5f 9e       	mul	r5, r31
 962:	30 0d       	add	r19, r0
 964:	11 24       	eor	r1, r1
 966:	53 2e       	mov	r5, r19
 968:	13 c0       	rjmp	.+38     	; 0x990 <vfprintf+0xca>
 96a:	8a e0       	ldi	r24, 0x0A	; 10
 96c:	38 9e       	mul	r3, r24
 96e:	30 0d       	add	r19, r0
 970:	11 24       	eor	r1, r1
 972:	33 2e       	mov	r3, r19
 974:	20 62       	ori	r18, 0x20	; 32
 976:	0c c0       	rjmp	.+24     	; 0x990 <vfprintf+0xca>
 978:	8e 32       	cpi	r24, 0x2E	; 46
 97a:	21 f4       	brne	.+8      	; 0x984 <vfprintf+0xbe>
 97c:	26 fd       	sbrc	r18, 6
 97e:	6b c1       	rjmp	.+726    	; 0xc56 <vfprintf+0x390>
 980:	20 64       	ori	r18, 0x40	; 64
 982:	06 c0       	rjmp	.+12     	; 0x990 <vfprintf+0xca>
 984:	8c 36       	cpi	r24, 0x6C	; 108
 986:	11 f4       	brne	.+4      	; 0x98c <vfprintf+0xc6>
 988:	20 68       	ori	r18, 0x80	; 128
 98a:	02 c0       	rjmp	.+4      	; 0x990 <vfprintf+0xca>
 98c:	88 36       	cpi	r24, 0x68	; 104
 98e:	41 f4       	brne	.+16     	; 0x9a0 <vfprintf+0xda>
 990:	f6 01       	movw	r30, r12
 992:	93 fd       	sbrc	r25, 3
 994:	85 91       	lpm	r24, Z+
 996:	93 ff       	sbrs	r25, 3
 998:	81 91       	ld	r24, Z+
 99a:	6f 01       	movw	r12, r30
 99c:	81 11       	cpse	r24, r1
 99e:	c1 cf       	rjmp	.-126    	; 0x922 <vfprintf+0x5c>
 9a0:	98 2f       	mov	r25, r24
 9a2:	9f 7d       	andi	r25, 0xDF	; 223
 9a4:	95 54       	subi	r25, 0x45	; 69
 9a6:	93 30       	cpi	r25, 0x03	; 3
 9a8:	28 f4       	brcc	.+10     	; 0x9b4 <vfprintf+0xee>
 9aa:	0c 5f       	subi	r16, 0xFC	; 252
 9ac:	1f 4f       	sbci	r17, 0xFF	; 255
 9ae:	ff e3       	ldi	r31, 0x3F	; 63
 9b0:	f9 83       	std	Y+1, r31	; 0x01
 9b2:	0d c0       	rjmp	.+26     	; 0x9ce <vfprintf+0x108>
 9b4:	83 36       	cpi	r24, 0x63	; 99
 9b6:	31 f0       	breq	.+12     	; 0x9c4 <vfprintf+0xfe>
 9b8:	83 37       	cpi	r24, 0x73	; 115
 9ba:	71 f0       	breq	.+28     	; 0x9d8 <vfprintf+0x112>
 9bc:	83 35       	cpi	r24, 0x53	; 83
 9be:	09 f0       	breq	.+2      	; 0x9c2 <vfprintf+0xfc>
 9c0:	5b c0       	rjmp	.+182    	; 0xa78 <vfprintf+0x1b2>
 9c2:	22 c0       	rjmp	.+68     	; 0xa08 <vfprintf+0x142>
 9c4:	f8 01       	movw	r30, r16
 9c6:	80 81       	ld	r24, Z
 9c8:	89 83       	std	Y+1, r24	; 0x01
 9ca:	0e 5f       	subi	r16, 0xFE	; 254
 9cc:	1f 4f       	sbci	r17, 0xFF	; 255
 9ce:	44 24       	eor	r4, r4
 9d0:	43 94       	inc	r4
 9d2:	51 2c       	mov	r5, r1
 9d4:	54 01       	movw	r10, r8
 9d6:	15 c0       	rjmp	.+42     	; 0xa02 <vfprintf+0x13c>
 9d8:	38 01       	movw	r6, r16
 9da:	f2 e0       	ldi	r31, 0x02	; 2
 9dc:	6f 0e       	add	r6, r31
 9de:	71 1c       	adc	r7, r1
 9e0:	f8 01       	movw	r30, r16
 9e2:	a0 80       	ld	r10, Z
 9e4:	b1 80       	ldd	r11, Z+1	; 0x01
 9e6:	26 ff       	sbrs	r18, 6
 9e8:	03 c0       	rjmp	.+6      	; 0x9f0 <vfprintf+0x12a>
 9ea:	65 2d       	mov	r22, r5
 9ec:	70 e0       	ldi	r23, 0x00	; 0
 9ee:	02 c0       	rjmp	.+4      	; 0x9f4 <vfprintf+0x12e>
 9f0:	6f ef       	ldi	r22, 0xFF	; 255
 9f2:	7f ef       	ldi	r23, 0xFF	; 255
 9f4:	c5 01       	movw	r24, r10
 9f6:	2c 87       	std	Y+12, r18	; 0x0c
 9f8:	0e 94 40 06 	call	0xc80	; 0xc80 <strnlen>
 9fc:	2c 01       	movw	r4, r24
 9fe:	83 01       	movw	r16, r6
 a00:	2c 85       	ldd	r18, Y+12	; 0x0c
 a02:	2f 77       	andi	r18, 0x7F	; 127
 a04:	22 2e       	mov	r2, r18
 a06:	17 c0       	rjmp	.+46     	; 0xa36 <vfprintf+0x170>
 a08:	38 01       	movw	r6, r16
 a0a:	f2 e0       	ldi	r31, 0x02	; 2
 a0c:	6f 0e       	add	r6, r31
 a0e:	71 1c       	adc	r7, r1
 a10:	f8 01       	movw	r30, r16
 a12:	a0 80       	ld	r10, Z
 a14:	b1 80       	ldd	r11, Z+1	; 0x01
 a16:	26 ff       	sbrs	r18, 6
 a18:	03 c0       	rjmp	.+6      	; 0xa20 <vfprintf+0x15a>
 a1a:	65 2d       	mov	r22, r5
 a1c:	70 e0       	ldi	r23, 0x00	; 0
 a1e:	02 c0       	rjmp	.+4      	; 0xa24 <vfprintf+0x15e>
 a20:	6f ef       	ldi	r22, 0xFF	; 255
 a22:	7f ef       	ldi	r23, 0xFF	; 255
 a24:	c5 01       	movw	r24, r10
 a26:	2c 87       	std	Y+12, r18	; 0x0c
 a28:	0e 94 35 06 	call	0xc6a	; 0xc6a <strnlen_P>
 a2c:	2c 01       	movw	r4, r24
 a2e:	2c 85       	ldd	r18, Y+12	; 0x0c
 a30:	20 68       	ori	r18, 0x80	; 128
 a32:	22 2e       	mov	r2, r18
 a34:	83 01       	movw	r16, r6
 a36:	23 fc       	sbrc	r2, 3
 a38:	1b c0       	rjmp	.+54     	; 0xa70 <vfprintf+0x1aa>
 a3a:	83 2d       	mov	r24, r3
 a3c:	90 e0       	ldi	r25, 0x00	; 0
 a3e:	48 16       	cp	r4, r24
 a40:	59 06       	cpc	r5, r25
 a42:	b0 f4       	brcc	.+44     	; 0xa70 <vfprintf+0x1aa>
 a44:	b7 01       	movw	r22, r14
 a46:	80 e2       	ldi	r24, 0x20	; 32
 a48:	90 e0       	ldi	r25, 0x00	; 0
 a4a:	0e 94 4b 06 	call	0xc96	; 0xc96 <fputc>
 a4e:	3a 94       	dec	r3
 a50:	f4 cf       	rjmp	.-24     	; 0xa3a <vfprintf+0x174>
 a52:	f5 01       	movw	r30, r10
 a54:	27 fc       	sbrc	r2, 7
 a56:	85 91       	lpm	r24, Z+
 a58:	27 fe       	sbrs	r2, 7
 a5a:	81 91       	ld	r24, Z+
 a5c:	5f 01       	movw	r10, r30
 a5e:	b7 01       	movw	r22, r14
 a60:	90 e0       	ldi	r25, 0x00	; 0
 a62:	0e 94 4b 06 	call	0xc96	; 0xc96 <fputc>
 a66:	31 10       	cpse	r3, r1
 a68:	3a 94       	dec	r3
 a6a:	f1 e0       	ldi	r31, 0x01	; 1
 a6c:	4f 1a       	sub	r4, r31
 a6e:	51 08       	sbc	r5, r1
 a70:	41 14       	cp	r4, r1
 a72:	51 04       	cpc	r5, r1
 a74:	71 f7       	brne	.-36     	; 0xa52 <vfprintf+0x18c>
 a76:	e5 c0       	rjmp	.+458    	; 0xc42 <vfprintf+0x37c>
 a78:	84 36       	cpi	r24, 0x64	; 100
 a7a:	11 f0       	breq	.+4      	; 0xa80 <vfprintf+0x1ba>
 a7c:	89 36       	cpi	r24, 0x69	; 105
 a7e:	39 f5       	brne	.+78     	; 0xace <vfprintf+0x208>
 a80:	f8 01       	movw	r30, r16
 a82:	27 ff       	sbrs	r18, 7
 a84:	07 c0       	rjmp	.+14     	; 0xa94 <vfprintf+0x1ce>
 a86:	60 81       	ld	r22, Z
 a88:	71 81       	ldd	r23, Z+1	; 0x01
 a8a:	82 81       	ldd	r24, Z+2	; 0x02
 a8c:	93 81       	ldd	r25, Z+3	; 0x03
 a8e:	0c 5f       	subi	r16, 0xFC	; 252
 a90:	1f 4f       	sbci	r17, 0xFF	; 255
 a92:	08 c0       	rjmp	.+16     	; 0xaa4 <vfprintf+0x1de>
 a94:	60 81       	ld	r22, Z
 a96:	71 81       	ldd	r23, Z+1	; 0x01
 a98:	88 27       	eor	r24, r24
 a9a:	77 fd       	sbrc	r23, 7
 a9c:	80 95       	com	r24
 a9e:	98 2f       	mov	r25, r24
 aa0:	0e 5f       	subi	r16, 0xFE	; 254
 aa2:	1f 4f       	sbci	r17, 0xFF	; 255
 aa4:	2f 76       	andi	r18, 0x6F	; 111
 aa6:	b2 2e       	mov	r11, r18
 aa8:	97 ff       	sbrs	r25, 7
 aaa:	09 c0       	rjmp	.+18     	; 0xabe <vfprintf+0x1f8>
 aac:	90 95       	com	r25
 aae:	80 95       	com	r24
 ab0:	70 95       	com	r23
 ab2:	61 95       	neg	r22
 ab4:	7f 4f       	sbci	r23, 0xFF	; 255
 ab6:	8f 4f       	sbci	r24, 0xFF	; 255
 ab8:	9f 4f       	sbci	r25, 0xFF	; 255
 aba:	20 68       	ori	r18, 0x80	; 128
 abc:	b2 2e       	mov	r11, r18
 abe:	2a e0       	ldi	r18, 0x0A	; 10
 ac0:	30 e0       	ldi	r19, 0x00	; 0
 ac2:	a4 01       	movw	r20, r8
 ac4:	0e 94 7d 06 	call	0xcfa	; 0xcfa <__ultoa_invert>
 ac8:	a8 2e       	mov	r10, r24
 aca:	a8 18       	sub	r10, r8
 acc:	44 c0       	rjmp	.+136    	; 0xb56 <vfprintf+0x290>
 ace:	85 37       	cpi	r24, 0x75	; 117
 ad0:	29 f4       	brne	.+10     	; 0xadc <vfprintf+0x216>
 ad2:	2f 7e       	andi	r18, 0xEF	; 239
 ad4:	b2 2e       	mov	r11, r18
 ad6:	2a e0       	ldi	r18, 0x0A	; 10
 ad8:	30 e0       	ldi	r19, 0x00	; 0
 ada:	25 c0       	rjmp	.+74     	; 0xb26 <vfprintf+0x260>
 adc:	f2 2f       	mov	r31, r18
 ade:	f9 7f       	andi	r31, 0xF9	; 249
 ae0:	bf 2e       	mov	r11, r31
 ae2:	8f 36       	cpi	r24, 0x6F	; 111
 ae4:	c1 f0       	breq	.+48     	; 0xb16 <vfprintf+0x250>
 ae6:	18 f4       	brcc	.+6      	; 0xaee <vfprintf+0x228>
 ae8:	88 35       	cpi	r24, 0x58	; 88
 aea:	79 f0       	breq	.+30     	; 0xb0a <vfprintf+0x244>
 aec:	b4 c0       	rjmp	.+360    	; 0xc56 <vfprintf+0x390>
 aee:	80 37       	cpi	r24, 0x70	; 112
 af0:	19 f0       	breq	.+6      	; 0xaf8 <vfprintf+0x232>
 af2:	88 37       	cpi	r24, 0x78	; 120
 af4:	21 f0       	breq	.+8      	; 0xafe <vfprintf+0x238>
 af6:	af c0       	rjmp	.+350    	; 0xc56 <vfprintf+0x390>
 af8:	2f 2f       	mov	r18, r31
 afa:	20 61       	ori	r18, 0x10	; 16
 afc:	b2 2e       	mov	r11, r18
 afe:	b4 fe       	sbrs	r11, 4
 b00:	0d c0       	rjmp	.+26     	; 0xb1c <vfprintf+0x256>
 b02:	8b 2d       	mov	r24, r11
 b04:	84 60       	ori	r24, 0x04	; 4
 b06:	b8 2e       	mov	r11, r24
 b08:	09 c0       	rjmp	.+18     	; 0xb1c <vfprintf+0x256>
 b0a:	24 ff       	sbrs	r18, 4
 b0c:	0a c0       	rjmp	.+20     	; 0xb22 <vfprintf+0x25c>
 b0e:	9f 2f       	mov	r25, r31
 b10:	96 60       	ori	r25, 0x06	; 6
 b12:	b9 2e       	mov	r11, r25
 b14:	06 c0       	rjmp	.+12     	; 0xb22 <vfprintf+0x25c>
 b16:	28 e0       	ldi	r18, 0x08	; 8
 b18:	30 e0       	ldi	r19, 0x00	; 0
 b1a:	05 c0       	rjmp	.+10     	; 0xb26 <vfprintf+0x260>
 b1c:	20 e1       	ldi	r18, 0x10	; 16
 b1e:	30 e0       	ldi	r19, 0x00	; 0
 b20:	02 c0       	rjmp	.+4      	; 0xb26 <vfprintf+0x260>
 b22:	20 e1       	ldi	r18, 0x10	; 16
 b24:	32 e0       	ldi	r19, 0x02	; 2
 b26:	f8 01       	movw	r30, r16
 b28:	b7 fe       	sbrs	r11, 7
 b2a:	07 c0       	rjmp	.+14     	; 0xb3a <vfprintf+0x274>
 b2c:	60 81       	ld	r22, Z
 b2e:	71 81       	ldd	r23, Z+1	; 0x01
 b30:	82 81       	ldd	r24, Z+2	; 0x02
 b32:	93 81       	ldd	r25, Z+3	; 0x03
 b34:	0c 5f       	subi	r16, 0xFC	; 252
 b36:	1f 4f       	sbci	r17, 0xFF	; 255
 b38:	06 c0       	rjmp	.+12     	; 0xb46 <vfprintf+0x280>
 b3a:	60 81       	ld	r22, Z
 b3c:	71 81       	ldd	r23, Z+1	; 0x01
 b3e:	80 e0       	ldi	r24, 0x00	; 0
 b40:	90 e0       	ldi	r25, 0x00	; 0
 b42:	0e 5f       	subi	r16, 0xFE	; 254
 b44:	1f 4f       	sbci	r17, 0xFF	; 255
 b46:	a4 01       	movw	r20, r8
 b48:	0e 94 7d 06 	call	0xcfa	; 0xcfa <__ultoa_invert>
 b4c:	a8 2e       	mov	r10, r24
 b4e:	a8 18       	sub	r10, r8
 b50:	fb 2d       	mov	r31, r11
 b52:	ff 77       	andi	r31, 0x7F	; 127
 b54:	bf 2e       	mov	r11, r31
 b56:	b6 fe       	sbrs	r11, 6
 b58:	0b c0       	rjmp	.+22     	; 0xb70 <vfprintf+0x2aa>
 b5a:	2b 2d       	mov	r18, r11
 b5c:	2e 7f       	andi	r18, 0xFE	; 254
 b5e:	a5 14       	cp	r10, r5
 b60:	50 f4       	brcc	.+20     	; 0xb76 <vfprintf+0x2b0>
 b62:	b4 fe       	sbrs	r11, 4
 b64:	0a c0       	rjmp	.+20     	; 0xb7a <vfprintf+0x2b4>
 b66:	b2 fc       	sbrc	r11, 2
 b68:	08 c0       	rjmp	.+16     	; 0xb7a <vfprintf+0x2b4>
 b6a:	2b 2d       	mov	r18, r11
 b6c:	2e 7e       	andi	r18, 0xEE	; 238
 b6e:	05 c0       	rjmp	.+10     	; 0xb7a <vfprintf+0x2b4>
 b70:	7a 2c       	mov	r7, r10
 b72:	2b 2d       	mov	r18, r11
 b74:	03 c0       	rjmp	.+6      	; 0xb7c <vfprintf+0x2b6>
 b76:	7a 2c       	mov	r7, r10
 b78:	01 c0       	rjmp	.+2      	; 0xb7c <vfprintf+0x2b6>
 b7a:	75 2c       	mov	r7, r5
 b7c:	24 ff       	sbrs	r18, 4
 b7e:	0d c0       	rjmp	.+26     	; 0xb9a <vfprintf+0x2d4>
 b80:	fe 01       	movw	r30, r28
 b82:	ea 0d       	add	r30, r10
 b84:	f1 1d       	adc	r31, r1
 b86:	80 81       	ld	r24, Z
 b88:	80 33       	cpi	r24, 0x30	; 48
 b8a:	11 f4       	brne	.+4      	; 0xb90 <vfprintf+0x2ca>
 b8c:	29 7e       	andi	r18, 0xE9	; 233
 b8e:	09 c0       	rjmp	.+18     	; 0xba2 <vfprintf+0x2dc>
 b90:	22 ff       	sbrs	r18, 2
 b92:	06 c0       	rjmp	.+12     	; 0xba0 <vfprintf+0x2da>
 b94:	73 94       	inc	r7
 b96:	73 94       	inc	r7
 b98:	04 c0       	rjmp	.+8      	; 0xba2 <vfprintf+0x2dc>
 b9a:	82 2f       	mov	r24, r18
 b9c:	86 78       	andi	r24, 0x86	; 134
 b9e:	09 f0       	breq	.+2      	; 0xba2 <vfprintf+0x2dc>
 ba0:	73 94       	inc	r7
 ba2:	23 fd       	sbrc	r18, 3
 ba4:	13 c0       	rjmp	.+38     	; 0xbcc <vfprintf+0x306>
 ba6:	20 ff       	sbrs	r18, 0
 ba8:	06 c0       	rjmp	.+12     	; 0xbb6 <vfprintf+0x2f0>
 baa:	5a 2c       	mov	r5, r10
 bac:	73 14       	cp	r7, r3
 bae:	18 f4       	brcc	.+6      	; 0xbb6 <vfprintf+0x2f0>
 bb0:	53 0c       	add	r5, r3
 bb2:	57 18       	sub	r5, r7
 bb4:	73 2c       	mov	r7, r3
 bb6:	73 14       	cp	r7, r3
 bb8:	68 f4       	brcc	.+26     	; 0xbd4 <vfprintf+0x30e>
 bba:	b7 01       	movw	r22, r14
 bbc:	80 e2       	ldi	r24, 0x20	; 32
 bbe:	90 e0       	ldi	r25, 0x00	; 0
 bc0:	2c 87       	std	Y+12, r18	; 0x0c
 bc2:	0e 94 4b 06 	call	0xc96	; 0xc96 <fputc>
 bc6:	73 94       	inc	r7
 bc8:	2c 85       	ldd	r18, Y+12	; 0x0c
 bca:	f5 cf       	rjmp	.-22     	; 0xbb6 <vfprintf+0x2f0>
 bcc:	73 14       	cp	r7, r3
 bce:	10 f4       	brcc	.+4      	; 0xbd4 <vfprintf+0x30e>
 bd0:	37 18       	sub	r3, r7
 bd2:	01 c0       	rjmp	.+2      	; 0xbd6 <vfprintf+0x310>
 bd4:	31 2c       	mov	r3, r1
 bd6:	24 ff       	sbrs	r18, 4
 bd8:	12 c0       	rjmp	.+36     	; 0xbfe <vfprintf+0x338>
 bda:	b7 01       	movw	r22, r14
 bdc:	80 e3       	ldi	r24, 0x30	; 48
 bde:	90 e0       	ldi	r25, 0x00	; 0
 be0:	2c 87       	std	Y+12, r18	; 0x0c
 be2:	0e 94 4b 06 	call	0xc96	; 0xc96 <fputc>
 be6:	2c 85       	ldd	r18, Y+12	; 0x0c
 be8:	22 ff       	sbrs	r18, 2
 bea:	17 c0       	rjmp	.+46     	; 0xc1a <vfprintf+0x354>
 bec:	21 ff       	sbrs	r18, 1
 bee:	03 c0       	rjmp	.+6      	; 0xbf6 <vfprintf+0x330>
 bf0:	88 e5       	ldi	r24, 0x58	; 88
 bf2:	90 e0       	ldi	r25, 0x00	; 0
 bf4:	02 c0       	rjmp	.+4      	; 0xbfa <vfprintf+0x334>
 bf6:	88 e7       	ldi	r24, 0x78	; 120
 bf8:	90 e0       	ldi	r25, 0x00	; 0
 bfa:	b7 01       	movw	r22, r14
 bfc:	0c c0       	rjmp	.+24     	; 0xc16 <vfprintf+0x350>
 bfe:	82 2f       	mov	r24, r18
 c00:	86 78       	andi	r24, 0x86	; 134
 c02:	59 f0       	breq	.+22     	; 0xc1a <vfprintf+0x354>
 c04:	21 fd       	sbrc	r18, 1
 c06:	02 c0       	rjmp	.+4      	; 0xc0c <vfprintf+0x346>
 c08:	80 e2       	ldi	r24, 0x20	; 32
 c0a:	01 c0       	rjmp	.+2      	; 0xc0e <vfprintf+0x348>
 c0c:	8b e2       	ldi	r24, 0x2B	; 43
 c0e:	27 fd       	sbrc	r18, 7
 c10:	8d e2       	ldi	r24, 0x2D	; 45
 c12:	b7 01       	movw	r22, r14
 c14:	90 e0       	ldi	r25, 0x00	; 0
 c16:	0e 94 4b 06 	call	0xc96	; 0xc96 <fputc>
 c1a:	a5 14       	cp	r10, r5
 c1c:	38 f4       	brcc	.+14     	; 0xc2c <vfprintf+0x366>
 c1e:	b7 01       	movw	r22, r14
 c20:	80 e3       	ldi	r24, 0x30	; 48
 c22:	90 e0       	ldi	r25, 0x00	; 0
 c24:	0e 94 4b 06 	call	0xc96	; 0xc96 <fputc>
 c28:	5a 94       	dec	r5
 c2a:	f7 cf       	rjmp	.-18     	; 0xc1a <vfprintf+0x354>
 c2c:	aa 94       	dec	r10
 c2e:	f4 01       	movw	r30, r8
 c30:	ea 0d       	add	r30, r10
 c32:	f1 1d       	adc	r31, r1
 c34:	80 81       	ld	r24, Z
 c36:	b7 01       	movw	r22, r14
 c38:	90 e0       	ldi	r25, 0x00	; 0
 c3a:	0e 94 4b 06 	call	0xc96	; 0xc96 <fputc>
 c3e:	a1 10       	cpse	r10, r1
 c40:	f5 cf       	rjmp	.-22     	; 0xc2c <vfprintf+0x366>
 c42:	33 20       	and	r3, r3
 c44:	09 f4       	brne	.+2      	; 0xc48 <vfprintf+0x382>
 c46:	51 ce       	rjmp	.-862    	; 0x8ea <vfprintf+0x24>
 c48:	b7 01       	movw	r22, r14
 c4a:	80 e2       	ldi	r24, 0x20	; 32
 c4c:	90 e0       	ldi	r25, 0x00	; 0
 c4e:	0e 94 4b 06 	call	0xc96	; 0xc96 <fputc>
 c52:	3a 94       	dec	r3
 c54:	f6 cf       	rjmp	.-20     	; 0xc42 <vfprintf+0x37c>
 c56:	f7 01       	movw	r30, r14
 c58:	86 81       	ldd	r24, Z+6	; 0x06
 c5a:	97 81       	ldd	r25, Z+7	; 0x07
 c5c:	02 c0       	rjmp	.+4      	; 0xc62 <vfprintf+0x39c>
 c5e:	8f ef       	ldi	r24, 0xFF	; 255
 c60:	9f ef       	ldi	r25, 0xFF	; 255
 c62:	2c 96       	adiw	r28, 0x0c	; 12
 c64:	e2 e1       	ldi	r30, 0x12	; 18
 c66:	0c 94 f4 06 	jmp	0xde8	; 0xde8 <__epilogue_restores__>

00000c6a <strnlen_P>:
 c6a:	fc 01       	movw	r30, r24
 c6c:	05 90       	lpm	r0, Z+
 c6e:	61 50       	subi	r22, 0x01	; 1
 c70:	70 40       	sbci	r23, 0x00	; 0
 c72:	01 10       	cpse	r0, r1
 c74:	d8 f7       	brcc	.-10     	; 0xc6c <strnlen_P+0x2>
 c76:	80 95       	com	r24
 c78:	90 95       	com	r25
 c7a:	8e 0f       	add	r24, r30
 c7c:	9f 1f       	adc	r25, r31
 c7e:	08 95       	ret

00000c80 <strnlen>:
 c80:	fc 01       	movw	r30, r24
 c82:	61 50       	subi	r22, 0x01	; 1
 c84:	70 40       	sbci	r23, 0x00	; 0
 c86:	01 90       	ld	r0, Z+
 c88:	01 10       	cpse	r0, r1
 c8a:	d8 f7       	brcc	.-10     	; 0xc82 <strnlen+0x2>
 c8c:	80 95       	com	r24
 c8e:	90 95       	com	r25
 c90:	8e 0f       	add	r24, r30
 c92:	9f 1f       	adc	r25, r31
 c94:	08 95       	ret

00000c96 <fputc>:
 c96:	0f 93       	push	r16
 c98:	1f 93       	push	r17
 c9a:	cf 93       	push	r28
 c9c:	df 93       	push	r29
 c9e:	18 2f       	mov	r17, r24
 ca0:	09 2f       	mov	r16, r25
 ca2:	eb 01       	movw	r28, r22
 ca4:	8b 81       	ldd	r24, Y+3	; 0x03
 ca6:	81 fd       	sbrc	r24, 1
 ca8:	03 c0       	rjmp	.+6      	; 0xcb0 <fputc+0x1a>
 caa:	8f ef       	ldi	r24, 0xFF	; 255
 cac:	9f ef       	ldi	r25, 0xFF	; 255
 cae:	20 c0       	rjmp	.+64     	; 0xcf0 <fputc+0x5a>
 cb0:	82 ff       	sbrs	r24, 2
 cb2:	10 c0       	rjmp	.+32     	; 0xcd4 <fputc+0x3e>
 cb4:	4e 81       	ldd	r20, Y+6	; 0x06
 cb6:	5f 81       	ldd	r21, Y+7	; 0x07
 cb8:	2c 81       	ldd	r18, Y+4	; 0x04
 cba:	3d 81       	ldd	r19, Y+5	; 0x05
 cbc:	42 17       	cp	r20, r18
 cbe:	53 07       	cpc	r21, r19
 cc0:	7c f4       	brge	.+30     	; 0xce0 <fputc+0x4a>
 cc2:	e8 81       	ld	r30, Y
 cc4:	f9 81       	ldd	r31, Y+1	; 0x01
 cc6:	9f 01       	movw	r18, r30
 cc8:	2f 5f       	subi	r18, 0xFF	; 255
 cca:	3f 4f       	sbci	r19, 0xFF	; 255
 ccc:	28 83       	st	Y, r18
 cce:	39 83       	std	Y+1, r19	; 0x01
 cd0:	10 83       	st	Z, r17
 cd2:	06 c0       	rjmp	.+12     	; 0xce0 <fputc+0x4a>
 cd4:	e8 85       	ldd	r30, Y+8	; 0x08
 cd6:	f9 85       	ldd	r31, Y+9	; 0x09
 cd8:	81 2f       	mov	r24, r17
 cda:	09 95       	icall
 cdc:	89 2b       	or	r24, r25
 cde:	29 f7       	brne	.-54     	; 0xcaa <fputc+0x14>
 ce0:	2e 81       	ldd	r18, Y+6	; 0x06
 ce2:	3f 81       	ldd	r19, Y+7	; 0x07
 ce4:	2f 5f       	subi	r18, 0xFF	; 255
 ce6:	3f 4f       	sbci	r19, 0xFF	; 255
 ce8:	2e 83       	std	Y+6, r18	; 0x06
 cea:	3f 83       	std	Y+7, r19	; 0x07
 cec:	81 2f       	mov	r24, r17
 cee:	90 2f       	mov	r25, r16
 cf0:	df 91       	pop	r29
 cf2:	cf 91       	pop	r28
 cf4:	1f 91       	pop	r17
 cf6:	0f 91       	pop	r16
 cf8:	08 95       	ret

00000cfa <__ultoa_invert>:
 cfa:	fa 01       	movw	r30, r20
 cfc:	aa 27       	eor	r26, r26
 cfe:	28 30       	cpi	r18, 0x08	; 8
 d00:	51 f1       	breq	.+84     	; 0xd56 <__ultoa_invert+0x5c>
 d02:	20 31       	cpi	r18, 0x10	; 16
 d04:	81 f1       	breq	.+96     	; 0xd66 <__ultoa_invert+0x6c>
 d06:	e8 94       	clt
 d08:	6f 93       	push	r22
 d0a:	6e 7f       	andi	r22, 0xFE	; 254
 d0c:	6e 5f       	subi	r22, 0xFE	; 254
 d0e:	7f 4f       	sbci	r23, 0xFF	; 255
 d10:	8f 4f       	sbci	r24, 0xFF	; 255
 d12:	9f 4f       	sbci	r25, 0xFF	; 255
 d14:	af 4f       	sbci	r26, 0xFF	; 255
 d16:	b1 e0       	ldi	r27, 0x01	; 1
 d18:	3e d0       	rcall	.+124    	; 0xd96 <__ultoa_invert+0x9c>
 d1a:	b4 e0       	ldi	r27, 0x04	; 4
 d1c:	3c d0       	rcall	.+120    	; 0xd96 <__ultoa_invert+0x9c>
 d1e:	67 0f       	add	r22, r23
 d20:	78 1f       	adc	r23, r24
 d22:	89 1f       	adc	r24, r25
 d24:	9a 1f       	adc	r25, r26
 d26:	a1 1d       	adc	r26, r1
 d28:	68 0f       	add	r22, r24
 d2a:	79 1f       	adc	r23, r25
 d2c:	8a 1f       	adc	r24, r26
 d2e:	91 1d       	adc	r25, r1
 d30:	a1 1d       	adc	r26, r1
 d32:	6a 0f       	add	r22, r26
 d34:	71 1d       	adc	r23, r1
 d36:	81 1d       	adc	r24, r1
 d38:	91 1d       	adc	r25, r1
 d3a:	a1 1d       	adc	r26, r1
 d3c:	20 d0       	rcall	.+64     	; 0xd7e <__ultoa_invert+0x84>
 d3e:	09 f4       	brne	.+2      	; 0xd42 <__ultoa_invert+0x48>
 d40:	68 94       	set
 d42:	3f 91       	pop	r19
 d44:	2a e0       	ldi	r18, 0x0A	; 10
 d46:	26 9f       	mul	r18, r22
 d48:	11 24       	eor	r1, r1
 d4a:	30 19       	sub	r19, r0
 d4c:	30 5d       	subi	r19, 0xD0	; 208
 d4e:	31 93       	st	Z+, r19
 d50:	de f6       	brtc	.-74     	; 0xd08 <__ultoa_invert+0xe>
 d52:	cf 01       	movw	r24, r30
 d54:	08 95       	ret
 d56:	46 2f       	mov	r20, r22
 d58:	47 70       	andi	r20, 0x07	; 7
 d5a:	40 5d       	subi	r20, 0xD0	; 208
 d5c:	41 93       	st	Z+, r20
 d5e:	b3 e0       	ldi	r27, 0x03	; 3
 d60:	0f d0       	rcall	.+30     	; 0xd80 <__ultoa_invert+0x86>
 d62:	c9 f7       	brne	.-14     	; 0xd56 <__ultoa_invert+0x5c>
 d64:	f6 cf       	rjmp	.-20     	; 0xd52 <__ultoa_invert+0x58>
 d66:	46 2f       	mov	r20, r22
 d68:	4f 70       	andi	r20, 0x0F	; 15
 d6a:	40 5d       	subi	r20, 0xD0	; 208
 d6c:	4a 33       	cpi	r20, 0x3A	; 58
 d6e:	18 f0       	brcs	.+6      	; 0xd76 <__ultoa_invert+0x7c>
 d70:	49 5d       	subi	r20, 0xD9	; 217
 d72:	31 fd       	sbrc	r19, 1
 d74:	40 52       	subi	r20, 0x20	; 32
 d76:	41 93       	st	Z+, r20
 d78:	02 d0       	rcall	.+4      	; 0xd7e <__ultoa_invert+0x84>
 d7a:	a9 f7       	brne	.-22     	; 0xd66 <__ultoa_invert+0x6c>
 d7c:	ea cf       	rjmp	.-44     	; 0xd52 <__ultoa_invert+0x58>
 d7e:	b4 e0       	ldi	r27, 0x04	; 4
 d80:	a6 95       	lsr	r26
 d82:	97 95       	ror	r25
 d84:	87 95       	ror	r24
 d86:	77 95       	ror	r23
 d88:	67 95       	ror	r22
 d8a:	ba 95       	dec	r27
 d8c:	c9 f7       	brne	.-14     	; 0xd80 <__ultoa_invert+0x86>
 d8e:	00 97       	sbiw	r24, 0x00	; 0
 d90:	61 05       	cpc	r22, r1
 d92:	71 05       	cpc	r23, r1
 d94:	08 95       	ret
 d96:	9b 01       	movw	r18, r22
 d98:	ac 01       	movw	r20, r24
 d9a:	0a 2e       	mov	r0, r26
 d9c:	06 94       	lsr	r0
 d9e:	57 95       	ror	r21
 da0:	47 95       	ror	r20
 da2:	37 95       	ror	r19
 da4:	27 95       	ror	r18
 da6:	ba 95       	dec	r27
 da8:	c9 f7       	brne	.-14     	; 0xd9c <__ultoa_invert+0xa2>
 daa:	62 0f       	add	r22, r18
 dac:	73 1f       	adc	r23, r19
 dae:	84 1f       	adc	r24, r20
 db0:	95 1f       	adc	r25, r21
 db2:	a0 1d       	adc	r26, r0
 db4:	08 95       	ret

00000db6 <__prologue_saves__>:
 db6:	2f 92       	push	r2
 db8:	3f 92       	push	r3
 dba:	4f 92       	push	r4
 dbc:	5f 92       	push	r5
 dbe:	6f 92       	push	r6
 dc0:	7f 92       	push	r7
 dc2:	8f 92       	push	r8
 dc4:	9f 92       	push	r9
 dc6:	af 92       	push	r10
 dc8:	bf 92       	push	r11
 dca:	cf 92       	push	r12
 dcc:	df 92       	push	r13
 dce:	ef 92       	push	r14
 dd0:	ff 92       	push	r15
 dd2:	0f 93       	push	r16
 dd4:	1f 93       	push	r17
 dd6:	cf 93       	push	r28
 dd8:	df 93       	push	r29
 dda:	cd b7       	in	r28, 0x3d	; 61
 ddc:	de b7       	in	r29, 0x3e	; 62
 dde:	ca 1b       	sub	r28, r26
 de0:	db 0b       	sbc	r29, r27
 de2:	cd bf       	out	0x3d, r28	; 61
 de4:	de bf       	out	0x3e, r29	; 62
 de6:	09 94       	ijmp

00000de8 <__epilogue_restores__>:
 de8:	2a 88       	ldd	r2, Y+18	; 0x12
 dea:	39 88       	ldd	r3, Y+17	; 0x11
 dec:	48 88       	ldd	r4, Y+16	; 0x10
 dee:	5f 84       	ldd	r5, Y+15	; 0x0f
 df0:	6e 84       	ldd	r6, Y+14	; 0x0e
 df2:	7d 84       	ldd	r7, Y+13	; 0x0d
 df4:	8c 84       	ldd	r8, Y+12	; 0x0c
 df6:	9b 84       	ldd	r9, Y+11	; 0x0b
 df8:	aa 84       	ldd	r10, Y+10	; 0x0a
 dfa:	b9 84       	ldd	r11, Y+9	; 0x09
 dfc:	c8 84       	ldd	r12, Y+8	; 0x08
 dfe:	df 80       	ldd	r13, Y+7	; 0x07
 e00:	ee 80       	ldd	r14, Y+6	; 0x06
 e02:	fd 80       	ldd	r15, Y+5	; 0x05
 e04:	0c 81       	ldd	r16, Y+4	; 0x04
 e06:	1b 81       	ldd	r17, Y+3	; 0x03
 e08:	aa 81       	ldd	r26, Y+2	; 0x02
 e0a:	b9 81       	ldd	r27, Y+1	; 0x01
 e0c:	ce 0f       	add	r28, r30
 e0e:	d1 1d       	adc	r29, r1
 e10:	cd bf       	out	0x3d, r28	; 61
 e12:	de bf       	out	0x3e, r29	; 62
 e14:	ed 01       	movw	r28, r26
 e16:	08 95       	ret

00000e18 <_exit>:
 e18:	f8 94       	cli

00000e1a <__stop_program>:
 e1a:	ff cf       	rjmp	.-2      	; 0xe1a <__stop_program>
